c__builtin__
set
p1
((lp2
S'http://product.pconline.com.cn/mobile/100+/557390_comment.html'
p3
aS'http://product.pconline.com.cn/mobile/oppo/604872_comment.html'
p4
aS'http://product.pconline.com.cn/mobile/koobee/553975_comment.html'
p5
aS'http://product.pconline.com.cn/mobile/zte/597207_comment.html'
p6
aS'http://product.pconline.com.cn/mobile/meizu/605827_comment.html'
p7
aS'http://product.pconline.com.cn/mobile/beidou/601012_comment.html'
p8
aS'http://product.pconline.com.cn/mobile/oppo/567224_comment.html'
p9
aS'http://product.pconline.com.cn/mobile/samsung/557209_comment.html'
p10
aS'http://product.pconline.com.cn/mobile/changhong/507192_comment.html'
p11
aS'http://product.pconline.com.cn/mobile/oppo/605971_comment.html'
p12
aS'http://product.pconline.com.cn/mobile/zte/577431_comment.html'
p13
aS'http://product.pconline.com.cn/mobile/honor/602352_comment.html'
p14
aS'http://product.pconline.com.cn/mobile/dakele/586754_comment.html'
p15
aS'http://product.pconline.com.cn/mobile/zte/577328_comment.html'
p16
aS'http://product.pconline.com.cn/mobile/samsung/578687_comment.html'
p17
aS'http://product.pconline.com.cn/mobile/honor/602577_comment.html'
p18
aS'http://product.pconline.com.cn/mobile/koobee/569936_comment.html'
p19
aS'http://product.pconline.com.cn/mobile/sony/539376_comment.html'
p20
aS'http://product.pconline.com.cn/mobile/wanlida/541490_comment.html'
p21
aS'http://product.pconline.com.cn/mobile/coolpad/581645_comment.html'
p22
aS'http://product.pconline.com.cn/mobile/gionee/555705_comment.html'
p23
aS'http://product.pconline.com.cn/mobile/nokia/579432_comment.html'
p24
aS'http://product.pconline.com.cn/mobile/motorola/603011_comment.html'
p25
aS'http://product.pconline.com.cn/mobile/meitukiss/602209_comment.html'
p26
aS'http://product.pconline.com.cn/mobile/kmo/541403_comment.html'
p27
aS'http://product.pconline.com.cn/mobile/fdt/548713_comment.html'
p28
aS'http://product.pconline.com.cn/mobile/aux/540156_comment.html'
p29
aS'http://product.pconline.com.cn/mobile/alcatel/503843_comment.html'
p30
aS'http://product.pconline.com.cn/mobile/yuntai/519120_comment.html'
p31
aS'http://product.pconline.com.cn/mobile/lenovo/577115_comment.html'
p32
aS'http://product.pconline.com.cn/mobile/lenovo/577124_comment.html'
p33
aS'http://product.pconline.com.cn/mobile/koobee/596936_comment.html'
p34
aS'http://product.pconline.com.cn/mobile/lenovo/563485_comment.html'
p35
aS'http://product.pconline.com.cn/mobile/philips/201342_comment.html'
p36
aS'http://product.pconline.com.cn/mobile/zte/536939_comment.html'
p37
aS'http://product.pconline.com.cn/mobile/coolpad/541256_comment.html'
p38
aS'http://product.pconline.com.cn/mobile/philips/600485_comment.html'
p39
aS'http://product.pconline.com.cn/mobile/doov/534057_comment.html'
p40
aS'http://product.pconline.com.cn/mobile/gfive/541837_comment.html'
p41
aS'http://product.pconline.com.cn/mobile/gionee/568479_comment.html'
p42
aS'http://product.pconline.com.cn/mobile/koobee/530136_comment.html'
p43
aS'http://product.pconline.com.cn/mobile/tcl/567983_comment.html'
p44
aS'http://product.pconline.com.cn/mobile/lg/574682_comment.html'
p45
aS'http://product.pconline.com.cn/mobile/sony/570282_comment.html'
p46
aS'http://product.pconline.com.cn/mobile/gionee/546268_comment.html'
p47
aS'http://product.pconline.com.cn/mobile/beidou/561155_comment.html'
p48
aS'http://product.pconline.com.cn/mobile/fmd/561912_comment.html'
p49
aS'http://product.pconline.com.cn/mobile/dec/401264_comment.html'
p50
aS'http://product.pconline.com.cn/mobile/asus/559874_comment.html'
p51
aS'http://product.pconline.com.cn/mobile/alcatel/395471_comment.html'
p52
aS'http://product.pconline.com.cn/mobile/samsung/575448_comment.html'
p53
aS'http://product.pconline.com.cn/mobile/dec/398636_comment.html'
p54
aS'http://product.pconline.com.cn/mobile/gionee/552797_comment.html'
p55
aS'http://product.pconline.com.cn/mobile/zte/533963_comment.html'
p56
aS'http://product.pconline.com.cn/mobile/samsung/553918_comment.html'
p57
aS'http://product.pconline.com.cn/mobile/sharp/433882_comment.html'
p58
aS'http://product.pconline.com.cn/mobile/lefeng/551495_comment.html'
p59
aS'http://product.pconline.com.cn/mobile/coolpad/596516_comment.html'
p60
aS'http://product.pconline.com.cn/mobile/boway/569712_comment.html'
p61
aS'http://product.pconline.com.cn/mobile/huawei/608373_comment.html'
p62
aS'http://product.pconline.com.cn/mobile/oppo/570329_comment.html'
p63
aS'http://product.pconline.com.cn/mobile/coolpad/601901_comment.html'
p64
aS'http://product.pconline.com.cn/mobile/lenovo/577117_comment.html'
p65
aS'http://product.pconline.com.cn/mobile/phicomm/568808_comment.html'
p66
aS'http://product.pconline.com.cn/mobile/asus/600751_comment.html'
p67
aS'http://product.pconline.com.cn/mobile/doov/570390_comment.html'
p68
aS'http://product.pconline.com.cn/mobile/gx/551906_comment.html'
p69
aS'http://product.pconline.com.cn/mobile/doov/450790_comment.html'
p70
aS'http://product.pconline.com.cn/mobile/koobee/558869_comment.html'
p71
aS'http://product.pconline.com.cn/mobile/coolpad/577515_comment.html'
p72
aS'http://product.pconline.com.cn/mobile/miui/581952_comment.html'
p73
aS'http://product.pconline.com.cn/mobile/huawei/588967_comment.html'
p74
aS'http://product.pconline.com.cn/mobile/hasee/560650_comment.html'
p75
aS'http://product.pconline.com.cn/mobile/ramos/607722_comment.html'
p76
aS'http://product.pconline.com.cn/mobile/dakele/576342_comment.html'
p77
aS'http://product.pconline.com.cn/mobile/apple/565323_comment.html'
p78
aS'http://product.pconline.com.cn/mobile/zte/540632_comment.html'
p79
aS'http://product.pconline.com.cn/mobile/tcl/533229_comment.html'
p80
aS'http://product.pconline.com.cn/mobile/lenovo/531812_comment.html'
p81
aS'http://product.pconline.com.cn/mobile/lg/544243_comment.html'
p82
aS'http://product.pconline.com.cn/mobile/dec/241545_comment.html'
p83
aS'http://product.pconline.com.cn/mobile/thl/553708_comment.html'
p84
aS'http://product.pconline.com.cn/mobile/sony/590179_comment.html'
p85
aS'http://product.pconline.com.cn/mobile/nokia/531773_comment.html'
p86
aS'http://product.pconline.com.cn/mobile/huawei/577075_comment.html'
p87
aS'http://product.pconline.com.cn/mobile/pomp/575308_comment.html'
p88
aS'http://product.pconline.com.cn/mobile/samsung/559486_comment.html'
p89
aS'http://product.pconline.com.cn/mobile/tcl/591458_comment.html'
p90
aS'http://product.pconline.com.cn/mobile/oppo/581890_comment.html'
p91
aS'http://product.pconline.com.cn/mobile/changhong/507180_comment.html'
p92
aS'http://product.pconline.com.cn/mobile/huawei/548034_comment.html'
p93
aS'http://product.pconline.com.cn/mobile/gionee/555703_comment.html'
p94
aS'http://product.pconline.com.cn/mobile/coolpad/529346_comment.html'
p95
aS'http://product.pconline.com.cn/mobile/hasee/565535_comment.html'
p96
aS'http://product.pconline.com.cn/mobile/nokia/517169_comment.html'
p97
aS'http://product.pconline.com.cn/mobile/sony/570877_comment.html'
p98
aS'http://product.pconline.com.cn/mobile/sony/595742_comment.html'
p99
aS'http://product.pconline.com.cn/mobile/dakele/545253_comment.html'
p100
aS'http://product.pconline.com.cn/mobile/honor/580485_comment.html'
p101
aS'http://product.pconline.com.cn/mobile/fdt/548714_comment.html'
p102
aS'http://product.pconline.com.cn/mobile/huawei/547481_comment.html'
p103
aS'http://product.pconline.com.cn/mobile/honor/560191_comment.html'
p104
aS'http://product.pconline.com.cn/mobile/gionee/532511_comment.html'
p105
aS'http://product.pconline.com.cn/mobile/amazon/490768_comment.html'
p106
aS'http://product.pconline.com.cn/mobile/bubugao/592478_comment.html'
p107
aS'http://product.pconline.com.cn/mobile/nokia/577297_comment.html'
p108
aS'http://product.pconline.com.cn/mobile/coolpad/571333_comment.html'
p109
aS'http://product.pconline.com.cn/mobile/phicomm/568083_comment.html'
p110
aS'http://product.pconline.com.cn/mobile/sony/600408_comment.html'
p111
aS'http://product.pconline.com.cn/mobile/samsung/559174_comment.html'
p112
aS'http://product.pconline.com.cn/mobile/htc/607153_comment.html'
p113
aS'http://product.pconline.com.cn/mobile/tcl/592208_comment.html'
p114
aS'http://product.pconline.com.cn/mobile/huawei/560885_comment.html'
p115
aS'http://product.pconline.com.cn/mobile/amoi/590890_comment.html'
p116
aS'http://product.pconline.com.cn/mobile/newman/550274_comment.html'
p117
aS'http://product.pconline.com.cn/mobile/smartisan/550941_comment.html'
p118
aS'http://product.pconline.com.cn/mobile/huawei/593649_comment.html'
p119
aS'http://product.pconline.com.cn/mobile/tyloo/566144_comment.html'
p120
aS'http://product.pconline.com.cn/mobile/samsung/550893_comment.html'
p121
aS'http://product.pconline.com.cn/mobile/koobee/507951_comment.html'
p122
aS'http://product.pconline.com.cn/mobile/meizu/554758_comment.html'
p123
aS'http://product.pconline.com.cn/mobile/difo/527425_comment.html'
p124
aS'http://product.pconline.com.cn/mobile/nokia/541734_comment.html'
p125
aS'http://product.pconline.com.cn/mobile/miui/608228_comment.html'
p126
aS'http://product.pconline.com.cn/mobile/blackberry/559530_comment.html'
p127
aS'http://product.pconline.com.cn/mobile/zte/577350_comment.html'
p128
aS'http://product.pconline.com.cn/mobile/voto/423360_comment.html'
p129
aS'http://product.pconline.com.cn/mobile/pomp/556758_comment.html'
p130
aS'http://product.pconline.com.cn/mobile/lenovo/577472_comment.html'
p131
aS'http://product.pconline.com.cn/mobile/1-call/545340_comment.html'
p132
aS'http://product.pconline.com.cn/mobile/nuu/598806_comment.html'
p133
aS'http://product.pconline.com.cn/mobile/nokia/555409_comment.html'
p134
aS'http://product.pconline.com.cn/mobile/samsung/600247_comment.html'
p135
aS'http://product.pconline.com.cn/mobile/bluesky/509099_comment.html'
p136
aS'http://product.pconline.com.cn/mobile/huawei/588387_comment.html'
p137
aS'http://product.pconline.com.cn/mobile/bubugao/591209_comment.html'
p138
aS'http://product.pconline.com.cn/mobile/philips/552794_comment.html'
p139
aS'http://product.pconline.com.cn/mobile/tcl/510964_comment.html'
p140
aS'http://product.pconline.com.cn/mobile/samsung/586441_comment.html'
p141
aS'http://product.pconline.com.cn/mobile/fdt/548717_comment.html'
p142
aS'http://product.pconline.com.cn/mobile/koobee/593951_comment.html'
p143
aS'http://product.pconline.com.cn/mobile/lenovo/587228_comment.html'
p144
aS'http://product.pconline.com.cn/mobile/oppo/595583_comment.html'
p145
aS'http://product.pconline.com.cn/mobile/dec/358831_comment.html'
p146
aS'http://product.pconline.com.cn/mobile/koobee/516816_comment.html'
p147
aS'http://product.pconline.com.cn/mobile/huawei/575249_comment.html'
p148
aS'http://product.pconline.com.cn/mobile/gionee/597947_comment.html'
p149
aS'http://product.pconline.com.cn/mobile/bubugao/594127_comment.html'
p150
aS'http://product.pconline.com.cn/mobile/infocus/575918_comment.html'
p151
aS'http://product.pconline.com.cn/mobile/honor/590311_comment.html'
p152
aS'http://product.pconline.com.cn/mobile/zte/583602_comment.html'
p153
aS'http://product.pconline.com.cn/mobile/aux/540160_comment.html'
p154
aS'http://product.pconline.com.cn/mobile/voto/556874_comment.html'
p155
aS'http://product.pconline.com.cn/mobile/htc/581446_comment.html'
p156
aS'http://product.pconline.com.cn/mobile/de/527645_comment.html'
p157
aS'http://product.pconline.com.cn/mobile/zte/546497_comment.html'
p158
aS'http://product.pconline.com.cn/mobile/samsung/580706_comment.html'
p159
aS'http://product.pconline.com.cn/mobile/gfive/542160_comment.html'
p160
aS'http://product.pconline.com.cn/mobile/nubia/558300_comment.html'
p161
aS'http://product.pconline.com.cn/mobile/coolpad/577086_comment.html'
p162
aS'http://product.pconline.com.cn/mobile/htc/596210_comment.html'
p163
aS'http://product.pconline.com.cn/mobile/voto/460653_comment.html'
p164
aS'http://product.pconline.com.cn/mobile/lenovo/574232_comment.html'
p165
aS'http://product.pconline.com.cn/mobile/boway/561152_comment.html'
p166
aS'http://product.pconline.com.cn/mobile/bubugao/591715_comment.html'
p167
aS'http://product.pconline.com.cn/mobile/sharp/516841_comment.html'
p168
aS'http://product.pconline.com.cn/mobile/changhong/425466_comment.html'
p169
aS'http://product.pconline.com.cn/mobile/tcl/562740_comment.html'
p170
aS'http://product.pconline.com.cn/mobile/amoi/463124_comment.html'
p171
aS'http://product.pconline.com.cn/mobile/coolpad/579266_comment.html'
p172
aS'http://product.pconline.com.cn/mobile/coolpad/579953_comment.html'
p173
aS'http://product.pconline.com.cn/mobile/nokia/510030_comment.html'
p174
aS'http://product.pconline.com.cn/mobile/honor/580471_comment.html'
p175
aS'http://product.pconline.com.cn/mobile/gionee/577758_comment.html'
p176
aS'http://product.pconline.com.cn/mobile/coolpad/577538_comment.html'
p177
aS'http://product.pconline.com.cn/mobile/huawei/591269_comment.html'
p178
aS'http://product.pconline.com.cn/mobile/samsung/559173_comment.html'
p179
aS'http://product.pconline.com.cn/mobile/coolpad/580338_comment.html'
p180
aS'http://product.pconline.com.cn/mobile/pholeps/566646_comment.html'
p181
aS'http://product.pconline.com.cn/mobile/acer/589969_comment.html'
p182
aS'http://product.pconline.com.cn/mobile/dec/423076_comment.html'
p183
aS'http://product.pconline.com.cn/mobile/nubia/588561_comment.html'
p184
aS'http://product.pconline.com.cn/mobile/huawei/568669_comment.html'
p185
aS'http://product.pconline.com.cn/mobile/zte/535468_comment.html'
p186
aS'http://product.pconline.com.cn/mobile/miui/580325_comment.html'
p187
aS'http://product.pconline.com.cn/mobile/miui/580223_comment.html'
p188
aS'http://product.pconline.com.cn/mobile/innos/599013_comment.html'
p189
aS'http://product.pconline.com.cn/mobile/xika/473052_comment.html'
p190
aS'http://product.pconline.com.cn/mobile/samsung/576983_comment.html'
p191
aS'http://product.pconline.com.cn/mobile/huawei/590549_comment.html'
p192
aS'http://product.pconline.com.cn/mobile/dakele/554177_comment.html'
p193
aS'http://product.pconline.com.cn/mobile/zhuopu/551123_comment.html'
p194
aS'http://product.pconline.com.cn/mobile/bubugao/575745_comment.html'
p195
aS'http://product.pconline.com.cn/mobile/nokia/605753_comment.html'
p196
aS'http://product.pconline.com.cn/mobile/lg/545553_comment.html'
p197
aS'http://product.pconline.com.cn/mobile/beidou/573995_comment.html'
p198
aS'http://product.pconline.com.cn/mobile/tcl/549580_comment.html'
p199
aS'http://product.pconline.com.cn/mobile/bluesky/509100_comment.html'
p200
aS'http://product.pconline.com.cn/mobile/sharp/438468_comment.html'
p201
aS'http://product.pconline.com.cn/mobile/yotaphone/578666_comment.html'
p202
aS'http://product.pconline.com.cn/mobile/bubugao/555140_comment.html'
p203
aS'http://product.pconline.com.cn/mobile/fmd/561914_comment.html'
p204
aS'http://product.pconline.com.cn/mobile/letv/602349_comment.html'
p205
aS'http://product.pconline.com.cn/mobile/tcl/575549_comment.html'
p206
aS'http://product.pconline.com.cn/mobile/hp/570442_comment.html'
p207
aS'http://product.pconline.com.cn/mobile/samsung/605319_comment.html'
p208
aS'http://product.pconline.com.cn/mobile/samsung/576075_comment.html'
p209
aS'http://product.pconline.com.cn/mobile/oppo/551000_comment.html'
p210
aS'http://product.pconline.com.cn/mobile/motorola/567653_comment.html'
p211
aS'http://product.pconline.com.cn/mobile/huawei/583272_comment.html'
p212
aS'http://product.pconline.com.cn/mobile/amoi/463108_comment.html'
p213
aS'http://product.pconline.com.cn/mobile/lg/577718_comment.html'
p214
aS'http://product.pconline.com.cn/mobile/sonim/366164_comment.html'
p215
aS'http://product.pconline.com.cn/mobile/meizu/552679_comment.html'
p216
aS'http://product.pconline.com.cn/mobile/changhong/425403_comment.html'
p217
aS'http://product.pconline.com.cn/mobile/koobee/541095_comment.html'
p218
aS'http://product.pconline.com.cn/mobile/samsung/595859_comment.html'
p219
aS'http://product.pconline.com.cn/mobile/phicomm/576988_comment.html'
p220
aS'http://product.pconline.com.cn/mobile/dec/387896_comment.html'
p221
aS'http://product.pconline.com.cn/mobile/gionee/550138_comment.html'
p222
aS'http://product.pconline.com.cn/mobile/beidou/607145_comment.html'
p223
aS'http://product.pconline.com.cn/mobile/vinus/524362_comment.html'
p224
aS'http://product.pconline.com.cn/mobile/dec/497305_comment.html'
p225
aS'http://product.pconline.com.cn/mobile/huawei/581104_comment.html'
p226
aS'http://product.pconline.com.cn/mobile/thl/546289_comment.html'
p227
aS'http://product.pconline.com.cn/mobile/samsung/554870_comment.html'
p228
aS'http://product.pconline.com.cn/mobile/honor/570389_comment.html'
p229
aS'http://product.pconline.com.cn/mobile/coolpad/552103_comment.html'
p230
aS'http://product.pconline.com.cn/mobile/bubugao/568667_comment.html'
p231
aS'http://product.pconline.com.cn/mobile/motorola/563038_comment.html'
p232
aS'http://product.pconline.com.cn/mobile/lg/571029_comment.html'
p233
aS'http://product.pconline.com.cn/mobile/koobee/475553_comment.html'
p234
aS'http://product.pconline.com.cn/mobile/nubia/604660_comment.html'
p235
aS'http://product.pconline.com.cn/mobile/zte/538054_comment.html'
p236
aS'http://product.pconline.com.cn/mobile/lenovo/602467_comment.html'
p237
aS'http://product.pconline.com.cn/mobile/micro/585090_comment.html'
p238
aS'http://product.pconline.com.cn/mobile/sony/585127_comment.html'
p239
aS'http://product.pconline.com.cn/mobile/letv/593943_comment.html'
p240
aS'http://product.pconline.com.cn/mobile/samsung/580759_comment.html'
p241
aS'http://product.pconline.com.cn/mobile/nokia/553587_comment.html'
p242
aS'http://product.pconline.com.cn/mobile/tcl/546604_comment.html'
p243
aS'http://product.pconline.com.cn/mobile/amoi/428035_comment.html'
p244
aS'http://product.pconline.com.cn/mobile/micro/581804_comment.html'
p245
aS'http://product.pconline.com.cn/mobile/lg/516832_comment.html'
p246
aS'http://product.pconline.com.cn/mobile/lenovo/552967_comment.html'
p247
aS'http://product.pconline.com.cn/mobile/sony/578732_comment.html'
p248
aS'http://product.pconline.com.cn/mobile/samsung/571497_comment.html'
p249
aS'http://product.pconline.com.cn/mobile/tcl/516642_comment.html'
p250
aS'http://product.pconline.com.cn/mobile/samsung/554671_comment.html'
p251
aS'http://product.pconline.com.cn/mobile/changhong/425400_comment.html'
p252
aS'http://product.pconline.com.cn/mobile/boway/552227_comment.html'
p253
aS'http://product.pconline.com.cn/mobile/oppo/605549_comment.html'
p254
aS'http://product.pconline.com.cn/mobile/zte/582011_comment.html'
p255
aS'http://product.pconline.com.cn/mobile/k_touch/571421_comment.html'
p256
aS'http://product.pconline.com.cn/mobile/neo/545449_comment.html'
p257
aS'http://product.pconline.com.cn/mobile/infocus/574545_comment.html'
p258
aS'http://product.pconline.com.cn/mobile/tcl/595598_comment.html'
p259
aS'http://product.pconline.com.cn/mobile/beidou/602248_comment.html'
p260
aS'http://product.pconline.com.cn/mobile/samsung/569068_comment.html'
p261
aS'http://product.pconline.com.cn/mobile/samsung/577194_comment.html'
p262
aS'http://product.pconline.com.cn/mobile/gionee/560668_comment.html'
p263
aS'http://product.pconline.com.cn/mobile/coolpad/577540_comment.html'
p264
aS'http://product.pconline.com.cn/mobile/newman/549746_comment.html'
p265
aS'http://product.pconline.com.cn/mobile/nubia/585283_comment.html'
p266
aS'http://product.pconline.com.cn/mobile/tcl/576222_comment.html'
p267
aS'http://product.pconline.com.cn/mobile/hasee/551203_comment.html'
p268
aS'http://product.pconline.com.cn/mobile/samsung/558325_comment.html'
p269
aS'http://product.pconline.com.cn/mobile/aoro/597295_comment.html'
p270
aS'http://product.pconline.com.cn/mobile/boway/553197_comment.html'
p271
aS'http://product.pconline.com.cn/mobile/tcl/573752_comment.html'
p272
aS'http://product.pconline.com.cn/mobile/zte/577310_comment.html'
p273
aS'http://product.pconline.com.cn/mobile/changhong/425424_comment.html'
p274
aS'http://product.pconline.com.cn/mobile/lenovo/598352_comment.html'
p275
aS'http://product.pconline.com.cn/mobile/broadsee/564571_comment.html'
p276
aS'http://product.pconline.com.cn/mobile/hasee/560646_comment.html'
p277
aS'http://product.pconline.com.cn/mobile/bubugao/569897_comment.html'
p278
aS'http://product.pconline.com.cn/mobile/miui/589110_comment.html'
p279
aS'http://product.pconline.com.cn/mobile/zte/588327_comment.html'
p280
aS'http://product.pconline.com.cn/mobile/samsung/579831_comment.html'
p281
aS'http://product.pconline.com.cn/mobile/tcl/568005_comment.html'
p282
aS'http://product.pconline.com.cn/mobile/bubugao/574760_comment.html'
p283
aS'http://product.pconline.com.cn/mobile/lenovo/589048_comment.html'
p284
aS'http://product.pconline.com.cn/mobile/huawei/528943_comment.html'
p285
aS'http://product.pconline.com.cn/mobile/huawei/589130_comment.html'
p286
aS'http://product.pconline.com.cn/mobile/sony/608749_comment.html'
p287
aS'http://product.pconline.com.cn/mobile/honor/560035_comment.html'
p288
aS'http://product.pconline.com.cn/mobile/gionee/580161_comment.html'
p289
aS'http://product.pconline.com.cn/mobile/samsung/560745_comment.html'
p290
aS'http://product.pconline.com.cn/mobile/tcl/531206_comment.html'
p291
aS'http://product.pconline.com.cn/mobile/huawei/548932_comment.html'
p292
aS'http://product.pconline.com.cn/mobile/lg/591047_comment.html'
p293
aS'http://product.pconline.com.cn/mobile/meizu/593585_comment.html'
p294
aS'http://product.pconline.com.cn/mobile/lg/577722_comment.html'
p295
aS'http://product.pconline.com.cn/mobile/philips/431355_comment.html'
p296
aS'http://product.pconline.com.cn/mobile/amoi/516039_comment.html'
p297
aS'http://product.pconline.com.cn/mobile/blackberry/411132_comment.html'
p298
aS'http://product.pconline.com.cn/mobile/asus/559340_comment.html'
p299
aS'http://product.pconline.com.cn/mobile/oppo/558768_comment.html'
p300
aS'http://product.pconline.com.cn/mobile/yx/545927_comment.html'
p301
aS'http://product.pconline.com.cn/mobile/zte/577336_comment.html'
p302
aS'http://product.pconline.com.cn/mobile/lenovo/577471_comment.html'
p303
aS'http://product.pconline.com.cn/mobile/tcl/520356_comment.html'
p304
aS'http://product.pconline.com.cn/mobile/lg/562907_comment.html'
p305
aS'http://product.pconline.com.cn/mobile/huawei/588347_comment.html'
p306
aS'http://product.pconline.com.cn/mobile/philips/435733_comment.html'
p307
aS'http://product.pconline.com.cn/mobile/samsung/565502_comment.html'
p308
aS'http://product.pconline.com.cn/mobile/philips/528336_comment.html'
p309
aS'http://product.pconline.com.cn/mobile/gionee/547676_comment.html'
p310
aS'http://product.pconline.com.cn/mobile/apple/575848_comment.html'
p311
aS'http://product.pconline.com.cn/mobile/samsung/581462_comment.html'
p312
aS'http://product.pconline.com.cn/mobile/huawei/570906_comment.html'
p313
aS'http://product.pconline.com.cn/mobile/lg/568995_comment.html'
p314
aS'http://product.pconline.com.cn/mobile/changhong/425450_comment.html'
p315
aS'http://product.pconline.com.cn/mobile/boway/577029_comment.html'
p316
aS'http://product.pconline.com.cn/mobile/samsung/560929_comment.html'
p317
aS'http://product.pconline.com.cn/mobile/samsung/576986_comment.html'
p318
aS'http://product.pconline.com.cn/mobile/samsung/569090_comment.html'
p319
aS'http://product.pconline.com.cn/mobile/nubia/571933_comment.html'
p320
aS'http://product.pconline.com.cn/mobile/nokia/581413_comment.html'
p321
aS'http://product.pconline.com.cn/mobile/k_touch/590647_comment.html'
p322
aS'http://product.pconline.com.cn/mobile/huawei/544365_comment.html'
p323
aS'http://product.pconline.com.cn/mobile/doov/568978_comment.html'
p324
aS'http://product.pconline.com.cn/mobile/htc/578121_comment.html'
p325
aS'http://product.pconline.com.cn/mobile/sony/534834_comment.html'
p326
aS'http://product.pconline.com.cn/mobile/coolpad/585111_comment.html'
p327
aS'http://product.pconline.com.cn/mobile/lenovo/563483_comment.html'
p328
aS'http://product.pconline.com.cn/mobile/bubugao/570486_comment.html'
p329
aS'http://product.pconline.com.cn/mobile/dec/437594_comment.html'
p330
aS'http://product.pconline.com.cn/mobile/alcatel/517328_comment.html'
p331
aS'http://product.pconline.com.cn/mobile/nokia/510031_comment.html'
p332
aS'http://product.pconline.com.cn/mobile/cmcc/548064_comment.html'
p333
aS'http://product.pconline.com.cn/mobile/sony/574487_comment.html'
p334
aS'http://product.pconline.com.cn/mobile/tcl/579371_comment.html'
p335
aS'http://product.pconline.com.cn/mobile/lenovo/540039_comment.html'
p336
aS'http://product.pconline.com.cn/mobile/TOOKY/548361_comment.html'
p337
aS'http://product.pconline.com.cn/mobile/coolpad/541558_comment.html'
p338
aS'http://product.pconline.com.cn/mobile/apple/575486_comment.html'
p339
aS'http://product.pconline.com.cn/mobile/lg/538050_comment.html'
p340
aS'http://product.pconline.com.cn/mobile/oppo/570590_comment.html'
p341
aS'http://product.pconline.com.cn/mobile/honor/596651_comment.html'
p342
aS'http://product.pconline.com.cn/mobile/oppo/571407_comment.html'
p343
aS'http://product.pconline.com.cn/mobile/nokia/579433_comment.html'
p344
aS'http://product.pconline.com.cn/mobile/voto/507493_comment.html'
p345
aS'http://product.pconline.com.cn/mobile/oppo/569028_comment.html'
p346
aS'http://product.pconline.com.cn/mobile/changhong/507239_comment.html'
p347
aS'http://product.pconline.com.cn/mobile/gionee/568448_comment.html'
p348
aS'http://product.pconline.com.cn/mobile/htc/563499_comment.html'
p349
aS'http://product.pconline.com.cn/mobile/coolpad/579798_comment.html'
p350
aS'http://product.pconline.com.cn/mobile/hike/547533_comment.html'
p351
aS'http://product.pconline.com.cn/mobile/htc/580907_comment.html'
p352
aS'http://product.pconline.com.cn/mobile/bluesky/517248_comment.html'
p353
aS'http://product.pconline.com.cn/mobile/oppo/588560_comment.html'
p354
aS'http://product.pconline.com.cn/mobile/honor/577619_comment.html'
p355
aS'http://product.pconline.com.cn/mobile/oppo/526199_comment.html'
p356
aS'http://product.pconline.com.cn/mobile/lenovo/577465_comment.html'
p357
aS'http://product.pconline.com.cn/mobile/huawei/580211_comment.html'
p358
aS'http://product.pconline.com.cn/mobile/konka/547538_comment.html'
p359
aS'http://product.pconline.com.cn/mobile/pantech/510153_comment.html'
p360
aS'http://product.pconline.com.cn/mobile/philips/548789_comment.html'
p361
aS'http://product.pconline.com.cn/mobile/asus/598073_comment.html'
p362
aS'http://product.pconline.com.cn/mobile/nokia/574024_comment.html'
p363
aS'http://product.pconline.com.cn/mobile/voto/497606_comment.html'
p364
aS'http://product.pconline.com.cn/mobile/coolpad/550140_comment.html'
p365
aS'http://product.pconline.com.cn/mobile/motorola/574305_comment.html'
p366
aS'http://product.pconline.com.cn/mobile/blackberry/604010_comment.html'
p367
aS'http://product.pconline.com.cn/mobile/nokia/579437_comment.html'
p368
aS'http://product.pconline.com.cn/mobile/boway/552289_comment.html'
p369
aS'http://product.pconline.com.cn/mobile/huawei/537474_comment.html'
p370
aS'http://product.pconline.com.cn/mobile/coolpad/530126_comment.html'
p371
aS'http://product.pconline.com.cn/mobile/blackberry/543267_comment.html'
p372
aS'http://product.pconline.com.cn/mobile/neo/532053_comment.html'
p373
aS'http://product.pconline.com.cn/mobile/coolpad/577513_comment.html'
p374
aS'http://product.pconline.com.cn/mobile/hasee/578053_comment.html'
p375
aS'http://product.pconline.com.cn/mobile/lenovo/577127_comment.html'
p376
aS'http://product.pconline.com.cn/mobile/voto/507502_comment.html'
p377
aS'http://product.pconline.com.cn/mobile/zte/542452_comment.html'
p378
aS'http://product.pconline.com.cn/mobile/tcl/516635_comment.html'
p379
aS'http://product.pconline.com.cn/mobile/lenovo/577489_comment.html'
p380
aS'http://product.pconline.com.cn/mobile/zte/558827_comment.html'
p381
aS'http://product.pconline.com.cn/mobile/lg/600871_comment.html'
p382
aS'http://product.pconline.com.cn/mobile/doov/450774_comment.html'
p383
aS'http://product.pconline.com.cn/mobile/beidou/605317_comment.html'
p384
aS'http://product.pconline.com.cn/mobile/gionee/600311_comment.html'
p385
aS'http://product.pconline.com.cn/mobile/meizu/552682_comment.html'
p386
aS'http://product.pconline.com.cn/mobile/bird/566813_comment.html'
p387
aS'http://product.pconline.com.cn/mobile/htc/576854_comment.html'
p388
aS'http://product.pconline.com.cn/mobile/htc/548941_comment.html'
p389
aS'http://product.pconline.com.cn/mobile/changhong/425462_comment.html'
p390
aS'http://product.pconline.com.cn/mobile/ltx/533115_comment.html'
p391
aS'http://product.pconline.com.cn/mobile/htc/576877_comment.html'
p392
aS'http://product.pconline.com.cn/mobile/gionee/550684_comment.html'
p393
aS'http://product.pconline.com.cn/mobile/alcatel/514338_comment.html'
p394
aS'http://product.pconline.com.cn/mobile/qicool/599820_comment.html'
p395
aS'http://product.pconline.com.cn/mobile/bird/556349_comment.html'
p396
aS'http://product.pconline.com.cn/mobile/meizu/558826_comment.html'
p397
aS'http://product.pconline.com.cn/mobile/coolpad/577523_comment.html'
p398
aS'http://product.pconline.com.cn/mobile/samsung/605269_comment.html'
p399
aS'http://product.pconline.com.cn/mobile/tcl/551949_comment.html'
p400
aS'http://product.pconline.com.cn/mobile/sony/540918_comment.html'
p401
aS'http://product.pconline.com.cn/mobile/oppo/546490_comment.html'
p402
aS'http://product.pconline.com.cn/mobile/aoro/561583_comment.html'
p403
aS'http://product.pconline.com.cn/mobile/coolpad/548155_comment.html'
p404
aS'http://product.pconline.com.cn/mobile/gionee/543554_comment.html'
p405
aS'http://product.pconline.com.cn/mobile/amoi/456878_comment.html'
p406
aS'http://product.pconline.com.cn/mobile/bubugao/605951_comment.html'
p407
aS'http://product.pconline.com.cn/mobile/coolpad/562405_comment.html'
p408
aS'http://product.pconline.com.cn/mobile/alcatel/511221_comment.html'
p409
aS'http://product.pconline.com.cn/mobile/oppo/526458_comment.html'
p410
aS'http://product.pconline.com.cn/mobile/coolpad/523188_comment.html'
p411
aS'http://product.pconline.com.cn/mobile/zte/596652_comment.html'
p412
aS'http://product.pconline.com.cn/mobile/bluesky/542606_comment.html'
p413
aS'http://product.pconline.com.cn/mobile/zte/578540_comment.html'
p414
aS'http://product.pconline.com.cn/mobile/bluesky/509095_comment.html'
p415
aS'http://product.pconline.com.cn/mobile/yx/545936_comment.html'
p416
aS'http://product.pconline.com.cn/mobile/zte/608427_comment.html'
p417
aS'http://product.pconline.com.cn/mobile/philips/600495_comment.html'
p418
aS'http://product.pconline.com.cn/mobile/coolpad/552415_comment.html'
p419
aS'http://product.pconline.com.cn/mobile/zte/577302_comment.html'
p420
aS'http://product.pconline.com.cn/mobile/yibainian/513198_comment.html'
p421
aS'http://product.pconline.com.cn/mobile/sharp/521454_comment.html'
p422
aS'http://product.pconline.com.cn/mobile/tcl/549582_comment.html'
p423
aS'http://product.pconline.com.cn/mobile/oppo/577807_comment.html'
p424
aS'http://product.pconline.com.cn/mobile/sony/563496_comment.html'
p425
aS'http://product.pconline.com.cn/mobile/htc/563252_comment.html'
p426
aS'http://product.pconline.com.cn/mobile/zte/577358_comment.html'
p427
aS'http://product.pconline.com.cn/mobile/huawei/561096_comment.html'
p428
aS'http://product.pconline.com.cn/mobile/lenovo/600929_comment.html'
p429
aS'http://product.pconline.com.cn/mobile/zte/566003_comment.html'
p430
aS'http://product.pconline.com.cn/mobile/zte/595597_comment.html'
p431
aS'http://product.pconline.com.cn/mobile/lg/562674_comment.html'
p432
aS'http://product.pconline.com.cn/mobile/gfive/550073_comment.html'
p433
aS'http://product.pconline.com.cn/mobile/phicomm/567781_comment.html'
p434
aS'http://product.pconline.com.cn/mobile/boway/567216_comment.html'
p435
aS'http://product.pconline.com.cn/mobile/coolpad/574843_comment.html'
p436
aS'http://product.pconline.com.cn/mobile/doov/416699_comment.html'
p437
aS'http://product.pconline.com.cn/mobile/tcl/548313_comment.html'
p438
aS'http://product.pconline.com.cn/mobile/tcl/549864_comment.html'
p439
aS'http://product.pconline.com.cn/mobile/huawei/531558_comment.html'
p440
aS'http://product.pconline.com.cn/mobile/samsung/564315_comment.html'
p441
aS'http://product.pconline.com.cn/mobile/coolpad/543594_comment.html'
p442
aS'http://product.pconline.com.cn/mobile/infocus/581988_comment.html'
p443
aS'http://product.pconline.com.cn/mobile/neo/544542_comment.html'
p444
aS'http://product.pconline.com.cn/mobile/apple/570024_comment.html'
p445
aS'http://product.pconline.com.cn/mobile/samsung/506870_comment.html'
p446
aS'http://product.pconline.com.cn/mobile/huawei/605276_comment.html'
p447
aS'http://product.pconline.com.cn/mobile/htc/575026_comment.html'
p448
aS'http://product.pconline.com.cn/mobile/honor/575356_comment.html'
p449
aS'http://product.pconline.com.cn/mobile/sonim/360612_comment.html'
p450
aS'http://product.pconline.com.cn/mobile/tcl/556435_comment.html'
p451
aS'http://product.pconline.com.cn/mobile/koobee/507946_comment.html'
p452
aS'http://product.pconline.com.cn/mobile/voto/556877_comment.html'
p453
aS'http://product.pconline.com.cn/mobile/htc/576958_comment.html'
p454
aS'http://product.pconline.com.cn/mobile/htc/566142_comment.html'
p455
aS'http://product.pconline.com.cn/mobile/yibainian/526183_comment.html'
p456
aS'http://product.pconline.com.cn/mobile/micro/585072_comment.html'
p457
aS'http://product.pconline.com.cn/mobile/blackberry/580431_comment.html'
p458
aS'http://product.pconline.com.cn/mobile/lg/537734_comment.html'
p459
aS'http://product.pconline.com.cn/mobile/gionee/602848_comment.html'
p460
aS'http://product.pconline.com.cn/mobile/bubugao/544645_comment.html'
p461
aS'http://product.pconline.com.cn/mobile/gionee/555700_comment.html'
p462
aS'http://product.pconline.com.cn/mobile/gionee/600329_comment.html'
p463
aS'http://product.pconline.com.cn/mobile/zhuopu/542025_comment.html'
p464
aS'http://product.pconline.com.cn/mobile/boway/552234_comment.html'
p465
aS'http://product.pconline.com.cn/mobile/tcl/568008_comment.html'
p466
aS'http://product.pconline.com.cn/mobile/runbo/569317_comment.html'
p467
aS'http://product.pconline.com.cn/mobile/nokia/548857_comment.html'
p468
aS'http://product.pconline.com.cn/mobile/honor/599297_comment.html'
p469
aS'http://product.pconline.com.cn/mobile/pptv/600923_comment.html'
p470
aS'http://product.pconline.com.cn/mobile/iuni/565397_comment.html'
p471
aS'http://product.pconline.com.cn/mobile/bird/577640_comment.html'
p472
aS'http://product.pconline.com.cn/mobile/bee/535787_comment.html'
p473
aS'http://product.pconline.com.cn/mobile/sharp/402023_comment.html'
p474
aS'http://product.pconline.com.cn/mobile/apple/471016_comment.html'
p475
aS'http://product.pconline.com.cn/mobile/boway/582844_comment.html'
p476
aS'http://product.pconline.com.cn/mobile/letv/589134_comment.html'
p477
aS'http://product.pconline.com.cn/mobile/hisense/578252_comment.html'
p478
aS'http://product.pconline.com.cn/mobile/sony/576830_comment.html'
p479
aS'http://product.pconline.com.cn/mobile/tcl/575771_comment.html'
p480
aS'http://product.pconline.com.cn/mobile/koobee/526172_comment.html'
p481
aS'http://product.pconline.com.cn/mobile/samsung/574231_comment.html'
p482
aS'http://product.pconline.com.cn/mobile/doov/555236_comment.html'
p483
aS'http://product.pconline.com.cn/mobile/honor/601643_comment.html'
p484
aS'http://product.pconline.com.cn/mobile/huawei/561791_comment.html'
p485
aS'http://product.pconline.com.cn/mobile/phicomm/567880_comment.html'
p486
aS'http://product.pconline.com.cn/mobile/phicomm/567772_comment.html'
p487
aS'http://product.pconline.com.cn/mobile/bubugao/578671_comment.html'
p488
aS'http://product.pconline.com.cn/mobile/coship/537030_comment.html'
p489
aS'http://product.pconline.com.cn/mobile/zte/577417_comment.html'
p490
aS'http://product.pconline.com.cn/mobile/sony/577279_comment.html'
p491
aS'http://product.pconline.com.cn/mobile/changhong/507211_comment.html'
p492
aS'http://product.pconline.com.cn/mobile/huawei/608372_comment.html'
p493
aS'http://product.pconline.com.cn/mobile/pioneer/580774_comment.html'
p494
aS'http://product.pconline.com.cn/mobile/samsung/555339_comment.html'
p495
aS'http://product.pconline.com.cn/mobile/lg/544284_comment.html'
p496
aS'http://product.pconline.com.cn/mobile/lg/516630_comment.html'
p497
aS'http://product.pconline.com.cn/mobile/tcl/573754_comment.html'
p498
aS'http://product.pconline.com.cn/mobile/boway/552285_comment.html'
p499
aS'http://product.pconline.com.cn/mobile/pioneer/575953_comment.html'
p500
aS'http://product.pconline.com.cn/mobile/micro/578333_comment.html'
p501
aS'http://product.pconline.com.cn/mobile/htc/594231_comment.html'
p502
aS'http://product.pconline.com.cn/mobile/zte/577315_comment.html'
p503
aS'http://product.pconline.com.cn/mobile/huawei/551904_comment.html'
p504
aS'http://product.pconline.com.cn/mobile/honor/580482_comment.html'
p505
aS'http://product.pconline.com.cn/mobile/gionee/164807_comment.html'
p506
aS'http://product.pconline.com.cn/mobile/difo/526187_comment.html'
p507
aS'http://product.pconline.com.cn/mobile/honor/576268_comment.html'
p508
aS'http://product.pconline.com.cn/mobile/tcl/588713_comment.html'
p509
aS'http://product.pconline.com.cn/mobile/hisense/500615_comment.html'
p510
aS'http://product.pconline.com.cn/mobile/zte/585485_comment.html'
p511
aS'http://product.pconline.com.cn/mobile/samsung/571413_comment.html'
p512
aS'http://product.pconline.com.cn/mobile/huawei/583595_comment.html'
p513
aS'http://product.pconline.com.cn/mobile/ivvi/607355_comment.html'
p514
aS'http://product.pconline.com.cn/mobile/tcl/590810_comment.html'
p515
aS'http://product.pconline.com.cn/mobile/miui/558301_comment.html'
p516
aS'http://product.pconline.com.cn/mobile/goophone/490575_comment.html'
p517
aS'http://product.pconline.com.cn/mobile/iuni/564185_comment.html'
p518
aS'http://product.pconline.com.cn/mobile/tcl/581476_comment.html'
p519
aS'http://product.pconline.com.cn/mobile/sharp/433883_comment.html'
p520
aS'http://product.pconline.com.cn/mobile/lenovo/577493_comment.html'
p521
aS'http://product.pconline.com.cn/mobile/boway/577031_comment.html'
p522
aS'http://product.pconline.com.cn/mobile/zte/577372_comment.html'
p523
aS'http://product.pconline.com.cn/mobile/sharp/408040_comment.html'
p524
aS'http://product.pconline.com.cn/mobile/coolpad/576593_comment.html'
p525
aS'http://product.pconline.com.cn/mobile/coolpad/557776_comment.html'
p526
aS'http://product.pconline.com.cn/mobile/coolpad/543592_comment.html'
p527
aS'http://product.pconline.com.cn/mobile/philips/431335_comment.html'
p528
aS'http://product.pconline.com.cn/mobile/dec/473700_comment.html'
p529
aS'http://product.pconline.com.cn/mobile/coolpad/601902_comment.html'
p530
aS'http://product.pconline.com.cn/mobile/lg/594229_comment.html'
p531
aS'http://product.pconline.com.cn/mobile/nokia/577299_comment.html'
p532
aS'http://product.pconline.com.cn/mobile/coolpad/577518_comment.html'
p533
aS'http://product.pconline.com.cn/mobile/samsung/577574_comment.html'
p534
aS'http://product.pconline.com.cn/mobile/k_touch/553006_comment.html'
p535
aS'http://product.pconline.com.cn/mobile/huawei/535770_comment.html'
p536
aS'http://product.pconline.com.cn/mobile/sony/596749_comment.html'
p537
aS'http://product.pconline.com.cn/mobile/gionee/608754_comment.html'
p538
aS'http://product.pconline.com.cn/mobile/samsung/559541_comment.html'
p539
aS'http://product.pconline.com.cn/mobile/lg/596456_comment.html'
p540
aS'http://product.pconline.com.cn/mobile/boway/592331_comment.html'
p541
aS'http://product.pconline.com.cn/mobile/zte/608828_comment.html'
p542
aS'http://product.pconline.com.cn/mobile/lg/607050_comment.html'
p543
aS'http://product.pconline.com.cn/mobile/newman/543805_comment.html'
p544
aS'http://product.pconline.com.cn/mobile/zte/542064_comment.html'
p545
aS'http://product.pconline.com.cn/mobile/bubugao/577171_comment.html'
p546
aS'http://product.pconline.com.cn/mobile/oneplus/597964_comment.html'
p547
aS'http://product.pconline.com.cn/mobile/alcatel/441099_comment.html'
p548
aS'http://product.pconline.com.cn/mobile/zte/546572_comment.html'
p549
aS'http://product.pconline.com.cn/mobile/gionee/550691_comment.html'
p550
aS'http://product.pconline.com.cn/mobile/sharp/530651_comment.html'
p551
aS'http://product.pconline.com.cn/mobile/neo/532096_comment.html'
p552
aS'http://product.pconline.com.cn/mobile/philips/580407_comment.html'
p553
aS'http://product.pconline.com.cn/mobile/ws/524824_comment.html'
p554
aS'http://product.pconline.com.cn/mobile/boway/561727_comment.html'
p555
aS'http://product.pconline.com.cn/mobile/lg/576911_comment.html'
p556
aS'http://product.pconline.com.cn/mobile/hyundai/552660_comment.html'
p557
aS'http://product.pconline.com.cn/mobile/amoi/546711_comment.html'
p558
aS'http://product.pconline.com.cn/mobile/nokia/498968_comment.html'
p559
aS'http://product.pconline.com.cn/mobile/changhong/507234_comment.html'
p560
aS'http://product.pconline.com.cn/mobile/huawei/573367_comment.html'
p561
aS'http://product.pconline.com.cn/mobile/miui/580659_comment.html'
p562
aS'http://product.pconline.com.cn/mobile/lenovo/590803_comment.html'
p563
aS'http://product.pconline.com.cn/mobile/changhong/515392_comment.html'
p564
aS'http://product.pconline.com.cn/mobile/samsung/577178_comment.html'
p565
aS'http://product.pconline.com.cn/mobile/nubia/544381_comment.html'
p566
aS'http://product.pconline.com.cn/mobile/oppo/565789_comment.html'
p567
aS'http://product.pconline.com.cn/mobile/k_touch/571414_comment.html'
p568
aS'http://product.pconline.com.cn/mobile/oone/568656_comment.html'
p569
aS'http://product.pconline.com.cn/mobile/sharp/481773_comment.html'
p570
aS'http://product.pconline.com.cn/mobile/zte/533823_comment.html'
p571
aS'http://product.pconline.com.cn/mobile/nokia/575511_comment.html'
p572
aS'http://product.pconline.com.cn/mobile/sharp/460230_comment.html'
p573
aS'http://product.pconline.com.cn/mobile/sony/497293_comment.html'
p574
aS'http://product.pconline.com.cn/mobile/tcl/541836_comment.html'
p575
aS'http://product.pconline.com.cn/mobile/hasee/566454_comment.html'
p576
aS'http://product.pconline.com.cn/mobile/conquest/580799_comment.html'
p577
aS'http://product.pconline.com.cn/mobile/zhenai/511253_comment.html'
p578
aS'http://product.pconline.com.cn/mobile/tcl/541831_comment.html'
p579
aS'http://product.pconline.com.cn/mobile/samsung/436580_comment.html'
p580
aS'http://product.pconline.com.cn/mobile/lenovo/577480_comment.html'
p581
aS'http://product.pconline.com.cn/mobile/oppo/541686_comment.html'
p582
aS'http://product.pconline.com.cn/mobile/zte/577369_comment.html'
p583
aS'http://product.pconline.com.cn/mobile/lg/559544_comment.html'
p584
aS'http://product.pconline.com.cn/mobile/k_touch/568327_comment.html'
p585
aS'http://product.pconline.com.cn/mobile/phicomm/567977_comment.html'
p586
aS'http://product.pconline.com.cn/mobile/amoi/561774_comment.html'
p587
aS'http://product.pconline.com.cn/mobile/tcl/591716_comment.html'
p588
aS'http://product.pconline.com.cn/mobile/philips/484856_comment.html'
p589
aS'http://product.pconline.com.cn/mobile/coolpad/566386_comment.html'
p590
aS'http://product.pconline.com.cn/mobile/letv/602347_comment.html'
p591
aS'http://product.pconline.com.cn/mobile/htc/588348_comment.html'
p592
aS'http://product.pconline.com.cn/mobile/honor/585463_comment.html'
p593
aS'http://product.pconline.com.cn/mobile/bubugao/597613_comment.html'
p594
aS'http://product.pconline.com.cn/mobile/google/575362_comment.html'
p595
aS'http://product.pconline.com.cn/mobile/changhong/560680_comment.html'
p596
aS'http://product.pconline.com.cn/mobile/qicool/606695_comment.html'
p597
aS'http://product.pconline.com.cn/mobile/coolpad/577089_comment.html'
p598
aS'http://product.pconline.com.cn/mobile/yibainian/487477_comment.html'
p599
aS'http://product.pconline.com.cn/mobile/hasee/560649_comment.html'
p600
aS'http://product.pconline.com.cn/mobile/vinus/522447_comment.html'
p601
aS'http://product.pconline.com.cn/mobile/huawei/477929_comment.html'
p602
aS'http://product.pconline.com.cn/mobile/gionee/577505_comment.html'
p603
aS'http://product.pconline.com.cn/mobile/dec/252748_comment.html'
p604
aS'http://product.pconline.com.cn/mobile/alcatel/516633_comment.html'
p605
aS'http://product.pconline.com.cn/mobile/yx/545935_comment.html'
p606
aS'http://product.pconline.com.cn/mobile/dec/457066_comment.html'
p607
aS'http://product.pconline.com.cn/mobile/thl/548023_comment.html'
p608
aS'http://product.pconline.com.cn/mobile/lefeng/551490_comment.html'
p609
aS'http://product.pconline.com.cn/mobile/meizu/531912_comment.html'
p610
aS'http://product.pconline.com.cn/mobile/letv/602348_comment.html'
p611
aS'http://product.pconline.com.cn/mobile/ivvi/584189_comment.html'
p612
aS'http://product.pconline.com.cn/mobile/huawei/603940_comment.html'
p613
aS'http://product.pconline.com.cn/mobile/nokia/551956_comment.html'
p614
aS'http://product.pconline.com.cn/mobile/lg/562909_comment.html'
p615
aS'http://product.pconline.com.cn/mobile/zte/577428_comment.html'
p616
aS'http://product.pconline.com.cn/mobile/dakele/540049_comment.html'
p617
aS'http://product.pconline.com.cn/mobile/samsung/570608_comment.html'
p618
aS'http://product.pconline.com.cn/mobile/hyundai/527848_comment.html'
p619
aS'http://product.pconline.com.cn/mobile/chongzi/594807_comment.html'
p620
aS'http://product.pconline.com.cn/mobile/bird/556350_comment.html'
p621
aS'http://product.pconline.com.cn/mobile/tcl/607721_comment.html'
p622
aS'http://product.pconline.com.cn/mobile/honor/596134_comment.html'
p623
aS'http://product.pconline.com.cn/mobile/nokia/543186_comment.html'
p624
aS'http://product.pconline.com.cn/mobile/nokia/504494_comment.html'
p625
aS'http://product.pconline.com.cn/mobile/huawei/601780_comment.html'
p626
aS'http://product.pconline.com.cn/mobile/meizu/546285_comment.html'
p627
aS'http://product.pconline.com.cn/mobile/tcl/566047_comment.html'
p628
aS'http://product.pconline.com.cn/mobile/zte/580615_comment.html'
p629
aS'http://product.pconline.com.cn/mobile/lenovo/562988_comment.html'
p630
aS'http://product.pconline.com.cn/mobile/samsung/564790_comment.html'
p631
aS'http://product.pconline.com.cn/mobile/sony/597588_comment.html'
p632
aS'http://product.pconline.com.cn/mobile/nokia/532296_comment.html'
p633
aS'http://product.pconline.com.cn/mobile/nokia/570255_comment.html'
p634
aS'http://product.pconline.com.cn/mobile/samsung/569093_comment.html'
p635
aS'http://product.pconline.com.cn/mobile/lenovo/577132_comment.html'
p636
aS'http://product.pconline.com.cn/mobile/tcl/580264_comment.html'
p637
aS'http://product.pconline.com.cn/mobile/zte/589129_comment.html'
p638
aS'http://product.pconline.com.cn/mobile/lenovo/607047_comment.html'
p639
aS'http://product.pconline.com.cn/mobile/boway/582847_comment.html'
p640
aS'http://product.pconline.com.cn/mobile/philips/461795_comment.html'
p641
aS'http://product.pconline.com.cn/mobile/gionee/555489_comment.html'
p642
aS'http://product.pconline.com.cn/mobile/coolpad/579538_comment.html'
p643
aS'http://product.pconline.com.cn/mobile/mc/543627_comment.html'
p644
aS'http://product.pconline.com.cn/mobile/lg/535262_comment.html'
p645
aS'http://product.pconline.com.cn/mobile/coolpad/533818_comment.html'
p646
aS'http://product.pconline.com.cn/mobile/micro/580716_comment.html'
p647
aS'http://product.pconline.com.cn/mobile/kxd/547702_comment.html'
p648
aS'http://product.pconline.com.cn/mobile/tcl/565280_comment.html'
p649
aS'http://product.pconline.com.cn/mobile/dakele/530306_comment.html'
p650
aS'http://product.pconline.com.cn/mobile/oneplus/597966_comment.html'
p651
aS'http://product.pconline.com.cn/mobile/samsung/560480_comment.html'
p652
aS'http://product.pconline.com.cn/mobile/nokia/568074_comment.html'
p653
aS'http://product.pconline.com.cn/mobile/samsung/588167_comment.html'
p654
aS'http://product.pconline.com.cn/mobile/miui/581233_comment.html'
p655
aS'http://product.pconline.com.cn/mobile/philips/604709_comment.html'
p656
aS'http://product.pconline.com.cn/mobile/k_touch/544872_comment.html'
p657
aS'http://product.pconline.com.cn/mobile/huawei/540175_comment.html'
p658
aS'http://product.pconline.com.cn/mobile/lg/574683_comment.html'
p659
aS'http://product.pconline.com.cn/mobile/inew/564596_comment.html'
p660
aS'http://product.pconline.com.cn/mobile/beidou/565774_comment.html'
p661
aS'http://product.pconline.com.cn/mobile/philips/411731_comment.html'
p662
aS'http://product.pconline.com.cn/mobile/zhuopu/567159_comment.html'
p663
aS'http://product.pconline.com.cn/mobile/philips/588826_comment.html'
p664
aS'http://product.pconline.com.cn/mobile/miui/573806_comment.html'
p665
aS'http://product.pconline.com.cn/mobile/nokia/510859_comment.html'
p666
aS'http://product.pconline.com.cn/mobile/samsung/546284_comment.html'
p667
aS'http://product.pconline.com.cn/mobile/lenovo/591529_comment.html'
p668
aS'http://product.pconline.com.cn/mobile/huadoo/593227_comment.html'
p669
aS'http://product.pconline.com.cn/mobile/gfive/554049_comment.html'
p670
aS'http://product.pconline.com.cn/mobile/lenovo/605530_comment.html'
p671
aS'http://product.pconline.com.cn/mobile/zte/538179_comment.html'
p672
aS'http://product.pconline.com.cn/mobile/lenovo/571161_comment.html'
p673
aS'http://product.pconline.com.cn/mobile/nokia/580834_comment.html'
p674
aS'http://product.pconline.com.cn/mobile/huawei/608591_comment.html'
p675
aS'http://product.pconline.com.cn/mobile/ivvi/580641_comment.html'
p676
aS'http://product.pconline.com.cn/mobile/infocus/569221_comment.html'
p677
aS'http://product.pconline.com.cn/mobile/phicomm/567778_comment.html'
p678
aS'http://product.pconline.com.cn/mobile/huawei/527079_comment.html'
p679
aS'http://product.pconline.com.cn/mobile/phicomm/578694_comment.html'
p680
aS'http://product.pconline.com.cn/mobile/lenovo/588812_comment.html'
p681
aS'http://product.pconline.com.cn/mobile/philips/600789_comment.html'
p682
aS'http://product.pconline.com.cn/mobile/miui/600814_comment.html'
p683
aS'http://product.pconline.com.cn/mobile/samsung/577192_comment.html'
p684
aS'http://product.pconline.com.cn/mobile/oppo/604871_comment.html'
p685
aS'http://product.pconline.com.cn/mobile/tcl/549863_comment.html'
p686
aS'http://product.pconline.com.cn/mobile/lg/575082_comment.html'
p687
aS'http://product.pconline.com.cn/mobile/huawei/541006_comment.html'
p688
aS'http://product.pconline.com.cn/mobile/oppo/591315_comment.html'
p689
aS'http://product.pconline.com.cn/mobile/htc/603007_comment.html'
p690
aS'http://product.pconline.com.cn/mobile/yx/545933_comment.html'
p691
aS'http://product.pconline.com.cn/mobile/tcl/580162_comment.html'
p692
aS'http://product.pconline.com.cn/mobile/htc/577987_comment.html'
p693
aS'http://product.pconline.com.cn/mobile/lenovo/556563_comment.html'
p694
aS'http://product.pconline.com.cn/mobile/zhuopu/547521_comment.html'
p695
aS'http://product.pconline.com.cn/mobile/nokia/559595_comment.html'
p696
aS'http://product.pconline.com.cn/mobile/bubugao/579961_comment.html'
p697
aS'http://product.pconline.com.cn/mobile/lenovo/565627_comment.html'
p698
aS'http://product.pconline.com.cn/mobile/smartisan/606486_comment.html'
p699
aS'http://product.pconline.com.cn/mobile/motorola/568604_comment.html'
p700
aS'http://product.pconline.com.cn/mobile/samsung/586675_comment.html'
p701
aS'http://product.pconline.com.cn/mobile/koobee/566383_comment.html'
p702
aS'http://product.pconline.com.cn/mobile/mc/547492_comment.html'
p703
aS'http://product.pconline.com.cn/mobile/changhong/425467_comment.html'
p704
aS'http://product.pconline.com.cn/mobile/apple/576907_comment.html'
p705
aS'http://product.pconline.com.cn/mobile/bird/556352_comment.html'
p706
aS'http://product.pconline.com.cn/mobile/alcatel/416813_comment.html'
p707
aS'http://product.pconline.com.cn/mobile/htc/608832_comment.html'
p708
aS'http://product.pconline.com.cn/mobile/nec/503495_comment.html'
p709
aS'http://product.pconline.com.cn/mobile/cmcc/596730_comment.html'
p710
aS'http://product.pconline.com.cn/mobile/motorola/582949_comment.html'
p711
aS'http://product.pconline.com.cn/mobile/lenovo/577469_comment.html'
p712
aS'http://product.pconline.com.cn/mobile/neo/518960_comment.html'
p713
aS'http://product.pconline.com.cn/mobile/doov/416693_comment.html'
p714
aS'http://product.pconline.com.cn/mobile/runbo/569319_comment.html'
p715
aS'http://product.pconline.com.cn/mobile/alcatel/503844_comment.html'
p716
aS'http://product.pconline.com.cn/mobile/nubia/605814_comment.html'
p717
aS'http://product.pconline.com.cn/mobile/oppo/535726_comment.html'
p718
aS'http://product.pconline.com.cn/mobile/tcl/541798_comment.html'
p719
aS'http://product.pconline.com.cn/mobile/huawei/560888_comment.html'
p720
aS'http://product.pconline.com.cn/mobile/konka/544389_comment.html'
p721
aS'http://product.pconline.com.cn/mobile/coolpad/580444_comment.html'
p722
aS'http://product.pconline.com.cn/mobile/nokia/538899_comment.html'
p723
aS'http://product.pconline.com.cn/mobile/philips/522461_comment.html'
p724
aS'http://product.pconline.com.cn/mobile/samsung/577023_comment.html'
p725
aS'http://product.pconline.com.cn/mobile/gionee/573541_comment.html'
p726
aS'http://product.pconline.com.cn/mobile/gionee/605279_comment.html'
p727
aS'http://product.pconline.com.cn/mobile/cmcc/593391_comment.html'
p728
aS'http://product.pconline.com.cn/mobile/tcl/580745_comment.html'
p729
aS'http://product.pconline.com.cn/mobile/changhong/425463_comment.html'
p730
aS'http://product.pconline.com.cn/mobile/boway/552977_comment.html'
p731
aS'http://product.pconline.com.cn/mobile/runbo/581719_comment.html'
p732
aS'http://product.pconline.com.cn/mobile/gionee/562090_comment.html'
p733
aS'http://product.pconline.com.cn/mobile/coolpad/560652_comment.html'
p734
aS'http://product.pconline.com.cn/mobile/lg/549711_comment.html'
p735
aS'http://product.pconline.com.cn/mobile/bird/556351_comment.html'
p736
aS'http://product.pconline.com.cn/mobile/meizu/602363_comment.html'
p737
aS'http://product.pconline.com.cn/mobile/nokia/537195_comment.html'
p738
aS'http://product.pconline.com.cn/mobile/samsung/564316_comment.html'
p739
aS'http://product.pconline.com.cn/mobile/mk/529225_comment.html'
p740
aS'http://product.pconline.com.cn/mobile/zte/577438_comment.html'
p741
aS'http://product.pconline.com.cn/mobile/samsung/553379_comment.html'
p742
aS'http://product.pconline.com.cn/mobile/dec/431972_comment.html'
p743
aS'http://product.pconline.com.cn/mobile/zte/577300_comment.html'
p744
aS'http://product.pconline.com.cn/mobile/honor/561720_comment.html'
p745
aS'http://product.pconline.com.cn/mobile/lenovo/577481_comment.html'
p746
aS'http://product.pconline.com.cn/mobile/conquest/595880_comment.html'
p747
aS'http://product.pconline.com.cn/mobile/zte/567886_comment.html'
p748
aS'http://product.pconline.com.cn/mobile/tcl/600984_comment.html'
p749
aS'http://product.pconline.com.cn/mobile/aoro/580865_comment.html'
p750
aS'http://product.pconline.com.cn/mobile/boway/552231_comment.html'
p751
aS'http://product.pconline.com.cn/mobile/samsung/605267_comment.html'
p752
aS'http://product.pconline.com.cn/mobile/samsung/552823_comment.html'
p753
aS'http://product.pconline.com.cn/mobile/htc/576946_comment.html'
p754
aS'http://product.pconline.com.cn/mobile/sony/563454_comment.html'
p755
aS'http://product.pconline.com.cn/mobile/boway/552080_comment.html'
p756
aS'http://product.pconline.com.cn/mobile/zte/541868_comment.html'
p757
aS'http://product.pconline.com.cn/mobile/k_touch/568329_comment.html'
p758
aS'http://product.pconline.com.cn/mobile/coolpad/573156_comment.html'
p759
aS'http://product.pconline.com.cn/mobile/lg/514812_comment.html'
p760
aS'http://product.pconline.com.cn/mobile/boway/552082_comment.html'
p761
aS'http://product.pconline.com.cn/mobile/doov/416681_comment.html'
p762
aS'http://product.pconline.com.cn/mobile/nokia/537838_comment.html'
p763
aS'http://product.pconline.com.cn/mobile/lg/561698_comment.html'
p764
aS'http://product.pconline.com.cn/mobile/coolpad/591345_comment.html'
p765
aS'http://product.pconline.com.cn/mobile/lenovo/545254_comment.html'
p766
aS'http://product.pconline.com.cn/mobile/samsung/589050_comment.html'
p767
aS'http://product.pconline.com.cn/mobile/coolpad/568179_comment.html'
p768
aS'http://product.pconline.com.cn/mobile/htc/596228_comment.html'
p769
aS'http://product.pconline.com.cn/mobile/miui/577254_comment.html'
p770
aS'http://product.pconline.com.cn/mobile/nokia/537461_comment.html'
p771
aS'http://product.pconline.com.cn/mobile/lenovo/577464_comment.html'
p772
aS'http://product.pconline.com.cn/mobile/zhenai/511678_comment.html'
p773
aS'http://product.pconline.com.cn/mobile/huawei/485444_comment.html'
p774
aS'http://product.pconline.com.cn/mobile/coolpad/536945_comment.html'
p775
aS'http://product.pconline.com.cn/mobile/hisense/591049_comment.html'
p776
aS'http://product.pconline.com.cn/mobile/samsung/554869_comment.html'
p777
aS'http://product.pconline.com.cn/mobile/htc/608834_comment.html'
p778
aS'http://product.pconline.com.cn/mobile/oppo/580146_comment.html'
p779
aS'http://product.pconline.com.cn/mobile/aux/546053_comment.html'
p780
aS'http://product.pconline.com.cn/mobile/phicomm/568079_comment.html'
p781
aS'http://product.pconline.com.cn/mobile/meizu/585857_comment.html'
p782
aS'http://product.pconline.com.cn/mobile/huawei/562803_comment.html'
p783
aS'http://product.pconline.com.cn/mobile/xika/472401_comment.html'
p784
aS'http://product.pconline.com.cn/mobile/phicomm/567768_comment.html'
p785
aS'http://product.pconline.com.cn/mobile/aoro/593075_comment.html'
p786
aS'http://product.pconline.com.cn/mobile/htc/578975_comment.html'
p787
aS'http://product.pconline.com.cn/mobile/honor/578421_comment.html'
p788
aS'http://product.pconline.com.cn/mobile/sharp/577612_comment.html'
p789
aS'http://product.pconline.com.cn/mobile/lg/579372_comment.html'
p790
aS'http://product.pconline.com.cn/mobile/miui/581232_comment.html'
p791
aS'http://product.pconline.com.cn/mobile/gfive/555159_comment.html'
p792
aS'http://product.pconline.com.cn/mobile/htc/574482_comment.html'
p793
aS'http://product.pconline.com.cn/mobile/lg/582958_comment.html'
p794
aS'http://product.pconline.com.cn/mobile/zte/537790_comment.html'
p795
aS'http://product.pconline.com.cn/mobile/coolpad/581378_comment.html'
p796
aS'http://product.pconline.com.cn/mobile/nokia/562414_comment.html'
p797
aS'http://product.pconline.com.cn/mobile/coolpad/552410_comment.html'
p798
aS'http://product.pconline.com.cn/mobile/huawei/561812_comment.html'
p799
aS'http://product.pconline.com.cn/mobile/coolpad/574457_comment.html'
p800
aS'http://product.pconline.com.cn/mobile/acer/585056_comment.html'
p801
aS'http://product.pconline.com.cn/mobile/cmcc/563649_comment.html'
p802
aS'http://product.pconline.com.cn/mobile/tcl/533244_comment.html'
p803
aS'http://product.pconline.com.cn/mobile/micro/589230_comment.html'
p804
aS'http://product.pconline.com.cn/mobile/samsung/568702_comment.html'
p805
aS'http://product.pconline.com.cn/mobile/boway/595855_comment.html'
p806
aS'http://product.pconline.com.cn/mobile/k_touch/548754_comment.html'
p807
aS'http://product.pconline.com.cn/mobile/lg/577723_comment.html'
p808
aS'http://product.pconline.com.cn/mobile/asus/561306_comment.html'
p809
aS'http://product.pconline.com.cn/mobile/samsung/571469_comment.html'
p810
aS'http://product.pconline.com.cn/mobile/bubugao/570611_comment.html'
p811
aS'http://product.pconline.com.cn/mobile/coolpad/574840_comment.html'
p812
aS'http://product.pconline.com.cn/mobile/bubugao/579960_comment.html'
p813
aS'http://product.pconline.com.cn/mobile/coolpad/591357_comment.html'
p814
aS'http://product.pconline.com.cn/mobile/dec/423083_comment.html'
p815
aS'http://product.pconline.com.cn/mobile/philips/532211_comment.html'
p816
aS'http://product.pconline.com.cn/mobile/honor/604367_comment.html'
p817
aS'http://product.pconline.com.cn/mobile/bee/544932_comment.html'
p818
aS'http://product.pconline.com.cn/mobile/gionee/574450_comment.html'
p819
aS'http://product.pconline.com.cn/mobile/honor/559363_comment.html'
p820
aS'http://product.pconline.com.cn/mobile/nokia/579431_comment.html'
p821
aS'http://product.pconline.com.cn/mobile/tcl/554678_comment.html'
p822
aS'http://product.pconline.com.cn/mobile/samsung/582324_comment.html'
p823
aS'http://product.pconline.com.cn/mobile/motorola/555567_comment.html'
p824
aS'http://product.pconline.com.cn/mobile/blackberry/577581_comment.html'
p825
aS'http://product.pconline.com.cn/mobile/honor/577930_comment.html'
p826
aS'http://product.pconline.com.cn/mobile/coolpad/577528_comment.html'
p827
aS'http://product.pconline.com.cn/mobile/gree/586676_comment.html'
p828
aS'http://product.pconline.com.cn/mobile/hyundai/548288_comment.html'
p829
aS'http://product.pconline.com.cn/mobile/samsung/589043_comment.html'
p830
aS'http://product.pconline.com.cn/mobile/gionee/592354_comment.html'
p831
aS'http://product.pconline.com.cn/mobile/boway/552081_comment.html'
p832
aS'http://product.pconline.com.cn/mobile/xika/473056_comment.html'
p833
aS'http://product.pconline.com.cn/mobile/meizu/595453_comment.html'
p834
aS'http://product.pconline.com.cn/mobile/amoi/568390_comment.html'
p835
aS'http://product.pconline.com.cn/mobile/koobee/555961_comment.html'
p836
aS'http://product.pconline.com.cn/mobile/samsung/577181_comment.html'
p837
aS'http://product.pconline.com.cn/mobile/samsung/587271_comment.html'
p838
aS'http://product.pconline.com.cn/mobile/samsung/589133_comment.html'
p839
aS'http://product.pconline.com.cn/mobile/htc/567752_comment.html'
p840
aS'http://product.pconline.com.cn/mobile/doov/548360_comment.html'
p841
aS'http://product.pconline.com.cn/mobile/oppo/578001_comment.html'
p842
aS'http://product.pconline.com.cn/mobile/philips/436772_comment.html'
p843
aS'http://product.pconline.com.cn/mobile/alcatel/441313_comment.html'
p844
aS'http://product.pconline.com.cn/mobile/eastcom/418406_comment.html'
p845
aS'http://product.pconline.com.cn/mobile/micro/586764_comment.html'
p846
aS'http://product.pconline.com.cn/mobile/apple/576908_comment.html'
p847
aS'http://product.pconline.com.cn/mobile/yibainian/496226_comment.html'
p848
aS'http://product.pconline.com.cn/mobile/nokia/537843_comment.html'
p849
aS'http://product.pconline.com.cn/mobile/coolpad/552413_comment.html'
p850
aS'http://product.pconline.com.cn/mobile/qicool/599819_comment.html'
p851
aS'http://product.pconline.com.cn/mobile/samsung/545783_comment.html'
p852
aS'http://product.pconline.com.cn/mobile/coolpad/578010_comment.html'
p853
aS'http://product.pconline.com.cn/mobile/huawei/542752_comment.html'
p854
aS'http://product.pconline.com.cn/mobile/samsung/575091_comment.html'
p855
aS'http://product.pconline.com.cn/mobile/estar/572405_comment.html'
p856
aS'http://product.pconline.com.cn/mobile/tcl/533241_comment.html'
p857
aS'http://product.pconline.com.cn/mobile/zte/537016_comment.html'
p858
aS'http://product.pconline.com.cn/mobile/nokia/546101_comment.html'
p859
aS'http://product.pconline.com.cn/mobile/koobee/515113_comment.html'
p860
aS'http://product.pconline.com.cn/mobile/yuandian/562093_comment.html'
p861
aS'http://product.pconline.com.cn/mobile/lenovo/562972_comment.html'
p862
aS'http://product.pconline.com.cn/mobile/ltx/524134_comment.html'
p863
aS'http://product.pconline.com.cn/mobile/bubugao/595168_comment.html'
p864
aS'http://product.pconline.com.cn/mobile/hike/532591_comment.html'
p865
aS'http://product.pconline.com.cn/mobile/htc/567274_comment.html'
p866
aS'http://product.pconline.com.cn/mobile/samsung/577179_comment.html'
p867
aS'http://product.pconline.com.cn/mobile/tcl/608374_comment.html'
p868
aS'http://product.pconline.com.cn/mobile/lenovo/594470_comment.html'
p869
aS'http://product.pconline.com.cn/mobile/oneplus/605807_comment.html'
p870
aS'http://product.pconline.com.cn/mobile/voto/523303_comment.html'
p871
aS'http://product.pconline.com.cn/mobile/samsung/546492_comment.html'
p872
aS'http://product.pconline.com.cn/mobile/lenovo/577462_comment.html'
p873
aS'http://product.pconline.com.cn/mobile/acer/585059_comment.html'
p874
aS'http://product.pconline.com.cn/mobile/boway/561150_comment.html'
p875
aS'http://product.pconline.com.cn/mobile/aoro/597299_comment.html'
p876
aS'http://product.pconline.com.cn/mobile/beidou/563538_comment.html'
p877
aS'http://product.pconline.com.cn/mobile/koobee/561495_comment.html'
p878
aS'http://product.pconline.com.cn/mobile/alcatel/515388_comment.html'
p879
aS'http://product.pconline.com.cn/mobile/huawei/578857_comment.html'
p880
aS'http://product.pconline.com.cn/mobile/honor/590310_comment.html'
p881
aS'http://product.pconline.com.cn/mobile/philips/590809_comment.html'
p882
aS'http://product.pconline.com.cn/mobile/zte/577344_comment.html'
p883
aS'http://product.pconline.com.cn/mobile/amoi/537740_comment.html'
p884
aS'http://product.pconline.com.cn/mobile/qicool/603619_comment.html'
p885
aS'http://product.pconline.com.cn/mobile/motorola/595454_comment.html'
p886
aS'http://product.pconline.com.cn/mobile/coolpad/577514_comment.html'
p887
aS'http://product.pconline.com.cn/mobile/asus/555165_comment.html'
p888
aS'http://product.pconline.com.cn/mobile/gionee/546267_comment.html'
p889
aS'http://product.pconline.com.cn/mobile/nubia/607768_comment.html'
p890
aS'http://product.pconline.com.cn/mobile/gionee/535721_comment.html'
p891
aS'http://product.pconline.com.cn/mobile/amoi/548185_comment.html'
p892
aS'http://product.pconline.com.cn/mobile/samsung/595581_comment.html'
p893
aS'http://product.pconline.com.cn/mobile/sony/566620_comment.html'
p894
aS'http://product.pconline.com.cn/mobile/amoi/438951_comment.html'
p895
aS'http://product.pconline.com.cn/mobile/huawei/594028_comment.html'
p896
aS'http://product.pconline.com.cn/mobile/philips/547721_comment.html'
p897
aS'http://product.pconline.com.cn/mobile/boway/577032_comment.html'
p898
aS'http://product.pconline.com.cn/mobile/oppo/545413_comment.html'
p899
aS'http://product.pconline.com.cn/mobile/huawei/608407_comment.html'
p900
aS'http://product.pconline.com.cn/mobile/changhong/507214_comment.html'
p901
aS'http://product.pconline.com.cn/mobile/oppo/595319_comment.html'
p902
aS'http://product.pconline.com.cn/mobile/apple/553290_comment.html'
p903
aS'http://product.pconline.com.cn/mobile/phicomm/567770_comment.html'
p904
aS'http://product.pconline.com.cn/mobile/haier/547711_comment.html'
p905
aS'http://product.pconline.com.cn/mobile/samsung/569092_comment.html'
p906
aS'http://product.pconline.com.cn/mobile/changhong/425435_comment.html'
p907
aS'http://product.pconline.com.cn/mobile/lenovo/577475_comment.html'
p908
aS'http://product.pconline.com.cn/mobile/lenovo/597556_comment.html'
p909
aS'http://product.pconline.com.cn/mobile/blackberry/536002_comment.html'
p910
aS'http://product.pconline.com.cn/mobile/gionee/584367_comment.html'
p911
aS'http://product.pconline.com.cn/mobile/zte/531066_comment.html'
p912
aS'http://product.pconline.com.cn/mobile/coolpad/579799_comment.html'
p913
aS'http://product.pconline.com.cn/mobile/sharp/478022_comment.html'
p914
aS'http://product.pconline.com.cn/mobile/huawei/596583_comment.html'
p915
aS'http://product.pconline.com.cn/mobile/lenovo/590108_comment.html'
p916
aS'http://product.pconline.com.cn/mobile/coolpad/577524_comment.html'
p917
aS'http://product.pconline.com.cn/mobile/philips/500614_comment.html'
p918
aS'http://product.pconline.com.cn/mobile/acer/570274_comment.html'
p919
aS'http://product.pconline.com.cn/mobile/alcatel/229359_comment.html'
p920
aS'http://product.pconline.com.cn/mobile/nubia/590791_comment.html'
p921
aS'http://product.pconline.com.cn/mobile/coolpad/539007_comment.html'
p922
aS'http://product.pconline.com.cn/mobile/philips/576352_comment.html'
p923
aS'http://product.pconline.com.cn/mobile/samsung/595599_comment.html'
p924
aS'http://product.pconline.com.cn/mobile/acer/589989_comment.html'
p925
aS'http://product.pconline.com.cn/mobile/nokia/552436_comment.html'
p926
aS'http://product.pconline.com.cn/mobile/coolpad/577517_comment.html'
p927
aS'http://product.pconline.com.cn/mobile/sharp/456633_comment.html'
p928
aS'http://product.pconline.com.cn/mobile/asus/527221_comment.html'
p929
aS'http://product.pconline.com.cn/mobile/huadoo/593208_comment.html'
p930
aS'http://product.pconline.com.cn/mobile/voto/433854_comment.html'
p931
aS'http://product.pconline.com.cn/mobile/blackberry/580805_comment.html'
p932
aS'http://product.pconline.com.cn/mobile/koobee/578256_comment.html'
p933
aS'http://product.pconline.com.cn/mobile/oppo/528172_comment.html'
p934
aS'http://product.pconline.com.cn/mobile/kxd/547701_comment.html'
p935
aS'http://product.pconline.com.cn/mobile/honor/577137_comment.html'
p936
aS'http://product.pconline.com.cn/mobile/lenovo/577497_comment.html'
p937
aS'http://product.pconline.com.cn/mobile/lenovo/577131_comment.html'
p938
aS'http://product.pconline.com.cn/mobile/coolpad/577529_comment.html'
p939
aS'http://product.pconline.com.cn/mobile/samsung/543439_comment.html'
p940
aS'http://product.pconline.com.cn/mobile/micro/595888_comment.html'
p941
aS'http://product.pconline.com.cn/mobile/changhong/507181_comment.html'
p942
aS'http://product.pconline.com.cn/mobile/oneplus/580487_comment.html'
p943
aS'http://product.pconline.com.cn/mobile/hasee/560644_comment.html'
p944
aS'http://product.pconline.com.cn/mobile/coolpad/525958_comment.html'
p945
aS'http://product.pconline.com.cn/mobile/pholeps/566645_comment.html'
p946
aS'http://product.pconline.com.cn/mobile/boway/552039_comment.html'
p947
aS'http://product.pconline.com.cn/mobile/yx/545938_comment.html'
p948
aS'http://product.pconline.com.cn/mobile/boway/573248_comment.html'
p949
aS'http://product.pconline.com.cn/mobile/altek/474868_comment.html'
p950
aS'http://product.pconline.com.cn/mobile/huawei/599548_comment.html'
p951
aS'http://product.pconline.com.cn/mobile/blackberry/595648_comment.html'
p952
aS'http://product.pconline.com.cn/mobile/huawei/544082_comment.html'
p953
aS'http://product.pconline.com.cn/mobile/gionee/550685_comment.html'
p954
aS'http://product.pconline.com.cn/mobile/hike/561061_comment.html'
p955
aS'http://product.pconline.com.cn/mobile/acer/542693_comment.html'
p956
aS'http://product.pconline.com.cn/mobile/samsung/577175_comment.html'
p957
aS'http://product.pconline.com.cn/mobile/hyundai/508569_comment.html'
p958
aS'http://product.pconline.com.cn/mobile/tcl/553978_comment.html'
p959
aS'http://product.pconline.com.cn/mobile/veaka/572758_comment.html'
p960
aS'http://product.pconline.com.cn/mobile/philips/555947_comment.html'
p961
aS'http://product.pconline.com.cn/mobile/alcatel/513712_comment.html'
p962
aS'http://product.pconline.com.cn/mobile/huawei/608763_comment.html'
p963
aS'http://product.pconline.com.cn/mobile/doov/347303_comment.html'
p964
aS'http://product.pconline.com.cn/mobile/oppo/492419_comment.html'
p965
aS'http://product.pconline.com.cn/mobile/lenovo/162032_comment.html'
p966
aS'http://product.pconline.com.cn/mobile/nokia/563495_comment.html'
p967
aS'http://product.pconline.com.cn/mobile/zte/603937_comment.html'
p968
aS'http://product.pconline.com.cn/mobile/zte/548745_comment.html'
p969
aS'http://product.pconline.com.cn/mobile/lenovo/606467_comment.html'
p970
aS'http://product.pconline.com.cn/mobile/voto/439199_comment.html'
p971
aS'http://product.pconline.com.cn/mobile/pantech/510066_comment.html'
p972
aS'http://product.pconline.com.cn/mobile/coolpad/579797_comment.html'
p973
aS'http://product.pconline.com.cn/mobile/tcl/564423_comment.html'
p974
aS'http://product.pconline.com.cn/mobile/dec/344988_comment.html'
p975
aS'http://product.pconline.com.cn/mobile/lenovo/590248_comment.html'
p976
aS'http://product.pconline.com.cn/mobile/gionee/561910_comment.html'
p977
aS'http://product.pconline.com.cn/mobile/dec/421856_comment.html'
p978
aS'http://product.pconline.com.cn/mobile/gionee/573535_comment.html'
p979
aS'http://product.pconline.com.cn/mobile/gigaset/600307_comment.html'
p980
aS'http://product.pconline.com.cn/mobile/sugar/607245_comment.html'
p981
aS'http://product.pconline.com.cn/mobile/htc/576834_comment.html'
p982
aS'http://product.pconline.com.cn/mobile/acer/600748_comment.html'
p983
aS'http://product.pconline.com.cn/mobile/gionee/594487_comment.html'
p984
aS'http://product.pconline.com.cn/mobile/lg/571596_comment.html'
p985
aS'http://product.pconline.com.cn/mobile/gigaset/600429_comment.html'
p986
aS'http://product.pconline.com.cn/mobile/bubugao/591728_comment.html'
p987
aS'http://product.pconline.com.cn/mobile/meizu/583695_comment.html'
p988
aS'http://product.pconline.com.cn/mobile/lg/577725_comment.html'
p989
aS'http://product.pconline.com.cn/mobile/gionee/573542_comment.html'
p990
aS'http://product.pconline.com.cn/mobile/samsung/577020_comment.html'
p991
aS'http://product.pconline.com.cn/mobile/qingcheng/558277_comment.html'
p992
aS'http://product.pconline.com.cn/mobile/wanlida/544703_comment.html'
p993
aS'http://product.pconline.com.cn/mobile/huadoo/595894_comment.html'
p994
aS'http://product.pconline.com.cn/mobile/oppo/535506_comment.html'
p995
aS'http://product.pconline.com.cn/mobile/changhong/425471_comment.html'
p996
aS'http://product.pconline.com.cn/mobile/blackberry/606725_comment.html'
p997
aS'http://product.pconline.com.cn/mobile/dec/485585_comment.html'
p998
aS'http://product.pconline.com.cn/mobile/huawei/537731_comment.html'
p999
aS'http://product.pconline.com.cn/mobile/philips/580082_comment.html'
p1000
aS'http://product.pconline.com.cn/mobile/coolpad/526062_comment.html'
p1001
aS'http://product.pconline.com.cn/mobile/philips/445885_comment.html'
p1002
aS'http://product.pconline.com.cn/mobile/dakele/579914_comment.html'
p1003
aS'http://product.pconline.com.cn/mobile/lenovo/569846_comment.html'
p1004
aS'http://product.pconline.com.cn/mobile/fdt/548709_comment.html'
p1005
aS'http://product.pconline.com.cn/mobile/sony/567047_comment.html'
p1006
aS'http://product.pconline.com.cn/mobile/sony/555492_comment.html'
p1007
aS'http://product.pconline.com.cn/mobile/lg/577716_comment.html'
p1008
aS'http://product.pconline.com.cn/mobile/samsung/552092_comment.html'
p1009
aS'http://product.pconline.com.cn/mobile/aoro/593058_comment.html'
p1010
aS'http://product.pconline.com.cn/mobile/honor/547263_comment.html'
p1011
aS'http://product.pconline.com.cn/mobile/asus/580760_comment.html'
p1012
aS'http://product.pconline.com.cn/mobile/blackberry/477610_comment.html'
p1013
aS'http://product.pconline.com.cn/mobile/nokia/579438_comment.html'
p1014
aS'http://product.pconline.com.cn/mobile/philips/568388_comment.html'
p1015
aS'http://product.pconline.com.cn/mobile/micro/596808_comment.html'
p1016
aS'http://product.pconline.com.cn/mobile/philips/573848_comment.html'
p1017
aS'http://product.pconline.com.cn/mobile/oppo/602319_comment.html'
p1018
aS'http://product.pconline.com.cn/mobile/htc/589109_comment.html'
p1019
aS'http://product.pconline.com.cn/mobile/samsung/605001_comment.html'
p1020
aS'http://product.pconline.com.cn/mobile/dakele/563091_comment.html'
p1021
aS'http://product.pconline.com.cn/mobile/huadoo/593268_comment.html'
p1022
aS'http://product.pconline.com.cn/mobile/samsung/550523_comment.html'
p1023
aS'http://product.pconline.com.cn/mobile/sony/600879_comment.html'
p1024
aS'http://product.pconline.com.cn/mobile/hasee/568000_comment.html'
p1025
aS'http://product.pconline.com.cn/mobile/sony/561804_comment.html'
p1026
aS'http://product.pconline.com.cn/mobile/beidou/604065_comment.html'
p1027
aS'http://product.pconline.com.cn/mobile/philips/589362_comment.html'
p1028
aS'http://product.pconline.com.cn/mobile/qicool/590607_comment.html'
p1029
aS'http://product.pconline.com.cn/mobile/huawei/580761_comment.html'
p1030
aS'http://product.pconline.com.cn/mobile/honor/601631_comment.html'
p1031
aS'http://product.pconline.com.cn/mobile/hdc/530427_comment.html'
p1032
aS'http://product.pconline.com.cn/mobile/bluesky/509093_comment.html'
p1033
aS'http://product.pconline.com.cn/mobile/lenovo/590802_comment.html'
p1034
aS'http://product.pconline.com.cn/mobile/letv/600885_comment.html'
p1035
aS'http://product.pconline.com.cn/mobile/zte/566978_comment.html'
p1036
aS'http://product.pconline.com.cn/mobile/nokia/505847_comment.html'
p1037
aS'http://product.pconline.com.cn/mobile/zte/577419_comment.html'
p1038
aS'http://product.pconline.com.cn/mobile/htc/562821_comment.html'
p1039
aS'http://product.pconline.com.cn/mobile/gionee/573544_comment.html'
p1040
aS'http://product.pconline.com.cn/mobile/samsung/577026_comment.html'
p1041
aS'http://product.pconline.com.cn/mobile/koobee/526771_comment.html'
p1042
aS'http://product.pconline.com.cn/mobile/lenovo/591314_comment.html'
p1043
aS'http://product.pconline.com.cn/mobile/coolpad/571925_comment.html'
p1044
aS'http://product.pconline.com.cn/mobile/tcl/527900_comment.html'
p1045
aS'http://product.pconline.com.cn/mobile/samsung/552093_comment.html'
p1046
aS'http://product.pconline.com.cn/mobile/meizu/588630_comment.html'
p1047
aS'http://product.pconline.com.cn/mobile/tcl/533252_comment.html'
p1048
aS'http://product.pconline.com.cn/mobile/zte/577322_comment.html'
p1049
aS'http://product.pconline.com.cn/mobile/changhong/509956_comment.html'
p1050
aS'http://product.pconline.com.cn/mobile/motorola/597147_comment.html'
p1051
aS'http://product.pconline.com.cn/mobile/zte/589337_comment.html'
p1052
aS'http://product.pconline.com.cn/mobile/samsung/565328_comment.html'
p1053
aS'http://product.pconline.com.cn/mobile/samsung/559696_comment.html'
p1054
aS'http://product.pconline.com.cn/mobile/nokia/543368_comment.html'
p1055
aS'http://product.pconline.com.cn/mobile/motorola/595438_comment.html'
p1056
aS'http://product.pconline.com.cn/mobile/bubugao/596438_comment.html'
p1057
aS'http://product.pconline.com.cn/mobile/huawei/561837_comment.html'
p1058
aS'http://product.pconline.com.cn/mobile/tcl/598698_comment.html'
p1059
aS'http://product.pconline.com.cn/mobile/lenovo/577097_comment.html'
p1060
aS'http://product.pconline.com.cn/mobile/zte/576583_comment.html'
p1061
aS'http://product.pconline.com.cn/mobile/bubugao/596584_comment.html'
p1062
aS'http://product.pconline.com.cn/mobile/alcatel/422702_comment.html'
p1063
aS'http://product.pconline.com.cn/mobile/voto/490875_comment.html'
p1064
aS'http://product.pconline.com.cn/mobile/motorola/577602_comment.html'
p1065
aS'http://product.pconline.com.cn/mobile/nokia/571843_comment.html'
p1066
aS'http://product.pconline.com.cn/mobile/fonee/552990_comment.html'
p1067
aS'http://product.pconline.com.cn/mobile/infocus/574543_comment.html'
p1068
aS'http://product.pconline.com.cn/mobile/huawei/596907_comment.html'
p1069
aS'http://product.pconline.com.cn/mobile/lg/523166_comment.html'
p1070
aS'http://product.pconline.com.cn/mobile/philips/608757_comment.html'
p1071
aS'http://product.pconline.com.cn/mobile/oppo/569218_comment.html'
p1072
aS'http://product.pconline.com.cn/mobile/lg/577966_comment.html'
p1073
aS'http://product.pconline.com.cn/mobile/zte/577360_comment.html'
p1074
aS'http://product.pconline.com.cn/mobile/tcl/578054_comment.html'
p1075
aS'http://product.pconline.com.cn/mobile/sugar/573037_comment.html'
p1076
aS'http://product.pconline.com.cn/mobile/lenovo/592527_comment.html'
p1077
aS'http://product.pconline.com.cn/mobile/philips/437046_comment.html'
p1078
aS'http://product.pconline.com.cn/mobile/honor/588527_comment.html'
p1079
aS'http://product.pconline.com.cn/mobile/zte/577422_comment.html'
p1080
aS'http://product.pconline.com.cn/mobile/koobee/534171_comment.html'
p1081
aS'http://product.pconline.com.cn/mobile/samsung/569101_comment.html'
p1082
aS'http://product.pconline.com.cn/mobile/phicomm/567976_comment.html'
p1083
aS'http://product.pconline.com.cn/mobile/oppo/542233_comment.html'
p1084
aS'http://product.pconline.com.cn/mobile/samsung/568701_comment.html'
p1085
aS'http://product.pconline.com.cn/mobile/philips/591750_comment.html'
p1086
aS'http://product.pconline.com.cn/mobile/doov/534075_comment.html'
p1087
aS'http://product.pconline.com.cn/mobile/alcatel/503837_comment.html'
p1088
aS'http://product.pconline.com.cn/mobile/coolpad/543597_comment.html'
p1089
aS'http://product.pconline.com.cn/mobile/lenovo/577094_comment.html'
p1090
aS'http://product.pconline.com.cn/mobile/coolpad/530264_comment.html'
p1091
aS'http://product.pconline.com.cn/mobile/htc/579625_comment.html'
p1092
aS'http://product.pconline.com.cn/mobile/sl/547118_comment.html'
p1093
aS'http://product.pconline.com.cn/mobile/lenovo/577118_comment.html'
p1094
aS'http://product.pconline.com.cn/mobile/oppo/581892_comment.html'
p1095
aS'http://product.pconline.com.cn/mobile/coolpad/586765_comment.html'
p1096
aS'http://product.pconline.com.cn/mobile/conquest/549404_comment.html'
p1097
aS'http://product.pconline.com.cn/mobile/bubugao/608593_comment.html'
p1098
aS'http://product.pconline.com.cn/mobile/oppo/591949_comment.html'
p1099
aS'http://product.pconline.com.cn/mobile/honor/605471_comment.html'
p1100
aS'http://product.pconline.com.cn/mobile/philips/450759_comment.html'
p1101
aS'http://product.pconline.com.cn/mobile/ltx/554705_comment.html'
p1102
aS'http://product.pconline.com.cn/mobile/kmo/530442_comment.html'
p1103
aS'http://product.pconline.com.cn/mobile/sony/596750_comment.html'
p1104
aS'http://product.pconline.com.cn/mobile/honor/580496_comment.html'
p1105
aS'http://product.pconline.com.cn/mobile/boway/552360_comment.html'
p1106
aS'http://product.pconline.com.cn/mobile/hisense/540609_comment.html'
p1107
aS'http://product.pconline.com.cn/mobile/gtjiatong/509857_comment.html'
p1108
aS'http://product.pconline.com.cn/mobile/bird/555960_comment.html'
p1109
aS'http://product.pconline.com.cn/mobile/nuu/533182_comment.html'
p1110
aS'http://product.pconline.com.cn/mobile/gax/556269_comment.html'
p1111
aS'http://product.pconline.com.cn/mobile/coolpad/577537_comment.html'
p1112
aS'http://product.pconline.com.cn/mobile/tcl/596231_comment.html'
p1113
aS'http://product.pconline.com.cn/mobile/nubia/535215_comment.html'
p1114
aS'http://product.pconline.com.cn/mobile/zte/590174_comment.html'
p1115
aS'http://product.pconline.com.cn/mobile/huawei/544742_comment.html'
p1116
aS'http://product.pconline.com.cn/mobile/zte/595551_comment.html'
p1117
aS'http://product.pconline.com.cn/mobile/difo/527423_comment.html'
p1118
aS'http://product.pconline.com.cn/mobile/bubugao/602835_comment.html'
p1119
aS'http://product.pconline.com.cn/mobile/bubugao/579804_comment.html'
p1120
aS'http://product.pconline.com.cn/mobile/voto/461526_comment.html'
p1121
aS'http://product.pconline.com.cn/mobile/miui/577573_comment.html'
p1122
aS'http://product.pconline.com.cn/mobile/lenovo/563480_comment.html'
p1123
aS'http://product.pconline.com.cn/mobile/apple/553285_comment.html'
p1124
aS'http://product.pconline.com.cn/mobile/phicomm/567879_comment.html'
p1125
aS'http://product.pconline.com.cn/mobile/asus/582555_comment.html'
p1126
aS'http://product.pconline.com.cn/mobile/zte/589333_comment.html'
p1127
aS'http://product.pconline.com.cn/mobile/tcl/569077_comment.html'
p1128
aS'http://product.pconline.com.cn/mobile/coolpad/538181_comment.html'
p1129
aS'http://product.pconline.com.cn/mobile/oppo/591791_comment.html'
p1130
aS'http://product.pconline.com.cn/mobile/philips/542166_comment.html'
p1131
aS'http://product.pconline.com.cn/mobile/philips/577594_comment.html'
p1132
aS'http://product.pconline.com.cn/mobile/alcatel/241006_comment.html'
p1133
aS'http://product.pconline.com.cn/mobile/honor/588744_comment.html'
p1134
aS'http://product.pconline.com.cn/mobile/oneplus/579835_comment.html'
p1135
aS'http://product.pconline.com.cn/mobile/tcl/552840_comment.html'
p1136
aS'http://product.pconline.com.cn/mobile/samsung/596587_comment.html'
p1137
aS'http://product.pconline.com.cn/mobile/aoro/558766_comment.html'
p1138
aS'http://product.pconline.com.cn/mobile/k_touch/558767_comment.html'
p1139
aS'http://product.pconline.com.cn/mobile/lenovo/574987_comment.html'
p1140
aS'http://product.pconline.com.cn/mobile/aux/565520_comment.html'
p1141
aS'http://product.pconline.com.cn/mobile/sharp/445963_comment.html'
p1142
aS'http://product.pconline.com.cn/mobile/samsung/558326_comment.html'
p1143
aS'http://product.pconline.com.cn/mobile/philips/516628_comment.html'
p1144
aS'http://product.pconline.com.cn/mobile/lenovo/606054_comment.html'
p1145
aS'http://product.pconline.com.cn/mobile/oppo/575971_comment.html'
p1146
aS'http://product.pconline.com.cn/mobile/zte/543602_comment.html'
p1147
aS'http://product.pconline.com.cn/mobile/yitong/541418_comment.html'
p1148
aS'http://product.pconline.com.cn/mobile/sony/569020_comment.html'
p1149
aS'http://product.pconline.com.cn/mobile/lenovo/585854_comment.html'
p1150
aS'http://product.pconline.com.cn/mobile/samsung/552896_comment.html'
p1151
aS'http://product.pconline.com.cn/mobile/samsung/562466_comment.html'
p1152
aS'http://product.pconline.com.cn/mobile/changhong/400771_comment.html'
p1153
aS'http://product.pconline.com.cn/mobile/coolpad/560656_comment.html'
p1154
aS'http://product.pconline.com.cn/mobile/hedy/552618_comment.html'
p1155
aS'http://product.pconline.com.cn/mobile/qingcheng/552363_comment.html'
p1156
aS'http://product.pconline.com.cn/mobile/bluesky/509096_comment.html'
p1157
aS'http://product.pconline.com.cn/mobile/gax/556271_comment.html'
p1158
aS'http://product.pconline.com.cn/mobile/philips/522240_comment.html'
p1159
aS'http://product.pconline.com.cn/mobile/philips/606468_comment.html'
p1160
aS'http://product.pconline.com.cn/mobile/gionee/590709_comment.html'
p1161
aS'http://product.pconline.com.cn/mobile/oppo/582136_comment.html'
p1162
aS'http://product.pconline.com.cn/mobile/lenovo/588555_comment.html'
p1163
aS'http://product.pconline.com.cn/mobile/lg/551307_comment.html'
p1164
aS'http://product.pconline.com.cn/mobile/coolpad/608060_comment.html'
p1165
aS'http://product.pconline.com.cn/mobile/nubia/570140_comment.html'
p1166
aS'http://product.pconline.com.cn/mobile/ws/534635_comment.html'
p1167
aS'http://product.pconline.com.cn/mobile/zte/596307_comment.html'
p1168
aS'http://product.pconline.com.cn/mobile/samsung/571412_comment.html'
p1169
aS'http://product.pconline.com.cn/mobile/htc/597547_comment.html'
p1170
aS'http://product.pconline.com.cn/mobile/oppo/545026_comment.html'
p1171
aS'http://product.pconline.com.cn/mobile/hyundai/527849_comment.html'
p1172
aS'http://product.pconline.com.cn/mobile/bluesky/509094_comment.html'
p1173
aS'http://product.pconline.com.cn/mobile/lg/571408_comment.html'
p1174
aS'http://product.pconline.com.cn/mobile/huawei/555093_comment.html'
p1175
aS'http://product.pconline.com.cn/mobile/huawei/576267_comment.html'
p1176
aS'http://product.pconline.com.cn/mobile/beidou/587888_comment.html'
p1177
aS'http://product.pconline.com.cn/mobile/changhong/425461_comment.html'
p1178
aS'http://product.pconline.com.cn/mobile/nokia/579434_comment.html'
p1179
aS'http://product.pconline.com.cn/mobile/htc/554972_comment.html'
p1180
aS'http://product.pconline.com.cn/mobile/og/542210_comment.html'
p1181
aS'http://product.pconline.com.cn/mobile/coolpad/608761_comment.html'
p1182
aS'http://product.pconline.com.cn/mobile/lg/554675_comment.html'
p1183
aS'http://product.pconline.com.cn/mobile/aux/565522_comment.html'
p1184
aS'http://product.pconline.com.cn/mobile/coolpad/577519_comment.html'
p1185
aS'http://product.pconline.com.cn/mobile/blackberry/563648_comment.html'
p1186
aS'http://product.pconline.com.cn/mobile/meizu/604928_comment.html'
p1187
aS'http://product.pconline.com.cn/mobile/tcl/551950_comment.html'
p1188
aS'http://product.pconline.com.cn/mobile/honor/602332_comment.html'
p1189
aS'http://product.pconline.com.cn/mobile/asus/595307_comment.html'
p1190
aS'http://product.pconline.com.cn/mobile/139shop/608957_comment.html'
p1191
aS'http://product.pconline.com.cn/mobile/alcatel/506780_comment.html'
p1192
aS'http://product.pconline.com.cn/mobile/zte/542392_comment.html'
p1193
aS'http://product.pconline.com.cn/mobile/nokia/509866_comment.html'
p1194
aS'http://product.pconline.com.cn/mobile/lg/545554_comment.html'
p1195
aS'http://product.pconline.com.cn/mobile/mk/537410_comment.html'
p1196
aS'http://product.pconline.com.cn/mobile/htc/585559_comment.html'
p1197
aS'http://product.pconline.com.cn/mobile/oppo/591901_comment.html'
p1198
aS'http://product.pconline.com.cn/mobile/phicomm/567975_comment.html'
p1199
aS'http://product.pconline.com.cn/mobile/samsung/562804_comment.html'
p1200
aS'http://product.pconline.com.cn/mobile/changhong/425460_comment.html'
p1201
aS'http://product.pconline.com.cn/mobile/samsung/564279_comment.html'
p1202
aS'http://product.pconline.com.cn/mobile/lenovo/553205_comment.html'
p1203
aS'http://product.pconline.com.cn/mobile/sharp/591756_comment.html'
p1204
aS'http://product.pconline.com.cn/mobile/zte/566975_comment.html'
p1205
aS'http://product.pconline.com.cn/mobile/nubia/602283_comment.html'
p1206
aS'http://product.pconline.com.cn/mobile/koobee/552238_comment.html'
p1207
aS'http://product.pconline.com.cn/mobile/philips/497375_comment.html'
p1208
aS'http://product.pconline.com.cn/mobile/samsung/577189_comment.html'
p1209
aS'http://product.pconline.com.cn/mobile/micro/581947_comment.html'
p1210
aS'http://product.pconline.com.cn/mobile/alcatel/517187_comment.html'
p1211
aS'http://product.pconline.com.cn/mobile/coolpad/568841_comment.html'
p1212
aS'http://product.pconline.com.cn/mobile/ebest/500620_comment.html'
p1213
aS'http://product.pconline.com.cn/mobile/oppo/589847_comment.html'
p1214
aS'http://product.pconline.com.cn/mobile/lenovo/577461_comment.html'
p1215
aS'http://product.pconline.com.cn/mobile/sony/584147_comment.html'
p1216
aS'http://product.pconline.com.cn/mobile/samsung/577241_comment.html'
p1217
aS'http://product.pconline.com.cn/mobile/honor/569089_comment.html'
p1218
aS'http://product.pconline.com.cn/mobile/nubia/594844_comment.html'
p1219
aS'http://product.pconline.com.cn/mobile/amoi/463167_comment.html'
p1220
aS'http://product.pconline.com.cn/mobile/boway/552288_comment.html'
p1221
aS'http://product.pconline.com.cn/mobile/tcl/565331_comment.html'
p1222
aS'http://product.pconline.com.cn/mobile/nokia/537026_comment.html'
p1223
aS'http://product.pconline.com.cn/mobile/huawei/558358_comment.html'
p1224
aS'http://product.pconline.com.cn/mobile/nubia/578695_comment.html'
p1225
aS'http://product.pconline.com.cn/mobile/meizu/591057_comment.html'
p1226
aS'http://product.pconline.com.cn/mobile/apple/601272_comment.html'
p1227
aS'http://product.pconline.com.cn/mobile/changhong/425444_comment.html'
p1228
aS'http://product.pconline.com.cn/mobile/meizu/585403_comment.html'
p1229
aS'http://product.pconline.com.cn/mobile/bubugao/555549_comment.html'
p1230
aS'http://product.pconline.com.cn/mobile/boway/552083_comment.html'
p1231
aS'http://product.pconline.com.cn/mobile/oppo/548996_comment.html'
p1232
aS'http://product.pconline.com.cn/mobile/altek/474865_comment.html'
p1233
aS'http://product.pconline.com.cn/mobile/sony/578733_comment.html'
p1234
aS'http://product.pconline.com.cn/mobile/huawei/543562_comment.html'
p1235
aS'http://product.pconline.com.cn/mobile/koobee/579444_comment.html'
p1236
aS'http://product.pconline.com.cn/mobile/lenovo/482796_comment.html'
p1237
aS'http://product.pconline.com.cn/mobile/lefeng/606471_comment.html'
p1238
aS'http://product.pconline.com.cn/mobile/sony/575968_comment.html'
p1239
aS'http://product.pconline.com.cn/mobile/samsung/590619_comment.html'
p1240
aS'http://product.pconline.com.cn/mobile/lg/598982_comment.html'
p1241
aS'http://product.pconline.com.cn/mobile/samsung/513167_comment.html'
p1242
aS'http://product.pconline.com.cn/mobile/samsung/577238_comment.html'
p1243
aS'http://product.pconline.com.cn/mobile/lenovo/577121_comment.html'
p1244
aS'http://product.pconline.com.cn/mobile/philips/485784_comment.html'
p1245
aS'http://product.pconline.com.cn/mobile/samsung/576061_comment.html'
p1246
aS'http://product.pconline.com.cn/mobile/yx/548747_comment.html'
p1247
aS'http://product.pconline.com.cn/mobile/newman/528855_comment.html'
p1248
aS'http://product.pconline.com.cn/mobile/lenovo/577484_comment.html'
p1249
aS'http://product.pconline.com.cn/mobile/samsung/578605_comment.html'
p1250
aS'http://product.pconline.com.cn/mobile/phicomm/567972_comment.html'
p1251
aS'http://product.pconline.com.cn/mobile/sony/560273_comment.html'
p1252
aS'http://product.pconline.com.cn/mobile/htc/566352_comment.html'
p1253
aS'http://product.pconline.com.cn/mobile/oppo/564649_comment.html'
p1254
aS'http://product.pconline.com.cn/mobile/lenovo/607048_comment.html'
p1255
aS'http://product.pconline.com.cn/mobile/coolpad/595589_comment.html'
p1256
aS'http://product.pconline.com.cn/mobile/tcl/541830_comment.html'
p1257
aS'http://product.pconline.com.cn/mobile/samsung/602816_comment.html'
p1258
aS'http://product.pconline.com.cn/mobile/amoi/463131_comment.html'
p1259
aS'http://product.pconline.com.cn/mobile/alcatel/182096_comment.html'
p1260
aS'http://product.pconline.com.cn/mobile/philips/551958_comment.html'
p1261
aS'http://product.pconline.com.cn/mobile/zte/577007_comment.html'
p1262
aS'http://product.pconline.com.cn/mobile/philips/454632_comment.html'
p1263
aS'http://product.pconline.com.cn/mobile/honor/580484_comment.html'
p1264
aS'http://product.pconline.com.cn/mobile/zte/577313_comment.html'
p1265
aS'http://product.pconline.com.cn/mobile/nokia/558363_comment.html'
p1266
aS'http://product.pconline.com.cn/mobile/smartisan/604768_comment.html'
p1267
aS'http://product.pconline.com.cn/mobile/asus/592711_comment.html'
p1268
aS'http://product.pconline.com.cn/mobile/k_touch/550750_comment.html'
p1269
aS'http://product.pconline.com.cn/mobile/lg/577721_comment.html'
p1270
aS'http://product.pconline.com.cn/mobile/veaka/561622_comment.html'
p1271
aS'http://product.pconline.com.cn/mobile/huawei/588130_comment.html'
p1272
aS'http://product.pconline.com.cn/mobile/samsung/568717_comment.html'
p1273
aS'http://product.pconline.com.cn/mobile/tcl/595575_comment.html'
p1274
aS'http://product.pconline.com.cn/mobile/gionee/555490_comment.html'
p1275
aS'http://product.pconline.com.cn/mobile/alcatel/441321_comment.html'
p1276
aS'http://product.pconline.com.cn/mobile/coolpad/581646_comment.html'
p1277
aS'http://product.pconline.com.cn/mobile/oppo/602581_comment.html'
p1278
aS'http://product.pconline.com.cn/mobile/philips/555072_comment.html'
p1279
aS'http://product.pconline.com.cn/mobile/sharp/428869_comment.html'
p1280
aS'http://product.pconline.com.cn/mobile/changhong/464459_comment.html'
p1281
aS'http://product.pconline.com.cn/mobile/honor/594972_comment.html'
p1282
aS'http://product.pconline.com.cn/mobile/koobee/533558_comment.html'
p1283
aS'http://product.pconline.com.cn/mobile/oppo/581891_comment.html'
p1284
aS'http://product.pconline.com.cn/mobile/lg/607049_comment.html'
p1285
aS'http://product.pconline.com.cn/mobile/sony/585045_comment.html'
p1286
aS'http://product.pconline.com.cn/mobile/nubia/596113_comment.html'
p1287
aS'http://product.pconline.com.cn/mobile/samsung/577024_comment.html'
p1288
aS'http://product.pconline.com.cn/mobile/iuni/594091_comment.html'
p1289
aS'http://product.pconline.com.cn/mobile/samsung/577176_comment.html'
p1290
aS'http://product.pconline.com.cn/mobile/tcl/549862_comment.html'
p1291
aS'http://product.pconline.com.cn/mobile/coolpad/525108_comment.html'
p1292
aS'http://product.pconline.com.cn/mobile/philips/442036_comment.html'
p1293
aS'http://product.pconline.com.cn/mobile/huawei/579167_comment.html'
p1294
aS'http://product.pconline.com.cn/mobile/huawei/559594_comment.html'
p1295
aS'http://product.pconline.com.cn/mobile/zte/577364_comment.html'
p1296
aS'http://product.pconline.com.cn/mobile/boway/589755_comment.html'
p1297
aS'http://product.pconline.com.cn/mobile/bluesky/509092_comment.html'
p1298
aS'http://product.pconline.com.cn/mobile/zte/545780_comment.html'
p1299
aS'http://product.pconline.com.cn/mobile/tcl/541833_comment.html'
p1300
aS'http://product.pconline.com.cn/mobile/philips/554894_comment.html'
p1301
aS'http://product.pconline.com.cn/mobile/miui/602578_comment.html'
p1302
aS'http://product.pconline.com.cn/mobile/honor/577138_comment.html'
p1303
aS'http://product.pconline.com.cn/mobile/oppo/556521_comment.html'
p1304
aS'http://product.pconline.com.cn/mobile/philips/517349_comment.html'
p1305
aS'http://product.pconline.com.cn/mobile/sony/575439_comment.html'
p1306
aS'http://product.pconline.com.cn/mobile/philips/409692_comment.html'
p1307
aS'http://product.pconline.com.cn/mobile/miui/550960_comment.html'
p1308
aS'http://product.pconline.com.cn/mobile/zte/562075_comment.html'
p1309
aS'http://product.pconline.com.cn/mobile/huawei/573036_comment.html'
p1310
aS'http://product.pconline.com.cn/mobile/samsung/589044_comment.html'
p1311
aS'http://product.pconline.com.cn/mobile/philips/446695_comment.html'
p1312
aS'http://product.pconline.com.cn/mobile/coolpad/591188_comment.html'
p1313
aS'http://product.pconline.com.cn/mobile/koobee/465997_comment.html'
p1314
aS'http://product.pconline.com.cn/mobile/miui/574180_comment.html'
p1315
aS'http://product.pconline.com.cn/mobile/boway/552359_comment.html'
p1316
aS'http://product.pconline.com.cn/mobile/nokia/608081_comment.html'
p1317
aS'http://product.pconline.com.cn/mobile/meizu/581396_comment.html'
p1318
aS'http://product.pconline.com.cn/mobile/zhenai/511675_comment.html'
p1319
aS'http://product.pconline.com.cn/mobile/zte/608779_comment.html'
p1320
aS'http://product.pconline.com.cn/mobile/samsung/604999_comment.html'
p1321
aS'http://product.pconline.com.cn/mobile/thl/544018_comment.html'
p1322
aS'http://product.pconline.com.cn/mobile/lefeng/551491_comment.html'
p1323
aS'http://product.pconline.com.cn/mobile/tcl/554784_comment.html'
p1324
aS'http://product.pconline.com.cn/mobile/oppo/594128_comment.html'
p1325
aS'http://product.pconline.com.cn/mobile/pholeps/571551_comment.html'
p1326
aS'http://product.pconline.com.cn/mobile/lg/568014_comment.html'
p1327
aS'http://product.pconline.com.cn/mobile/htc/590630_comment.html'
p1328
aS'http://product.pconline.com.cn/mobile/sharp/456787_comment.html'
p1329
aS'http://product.pconline.com.cn/mobile/htc/566351_comment.html'
p1330
aS'http://product.pconline.com.cn/mobile/changhong/507215_comment.html'
p1331
aS'http://product.pconline.com.cn/mobile/doov/450879_comment.html'
p1332
aS'http://product.pconline.com.cn/mobile/k_touch/550699_comment.html'
p1333
aS'http://product.pconline.com.cn/mobile/1-call/545334_comment.html'
p1334
aS'http://product.pconline.com.cn/mobile/htc/594211_comment.html'
p1335
aS'http://product.pconline.com.cn/mobile/huawei/586016_comment.html'
p1336
aS'http://product.pconline.com.cn/mobile/yx/545930_comment.html'
p1337
aS'http://product.pconline.com.cn/mobile/koobee/599012_comment.html'
p1338
aS'http://product.pconline.com.cn/mobile/zte/577416_comment.html'
p1339
aS'http://product.pconline.com.cn/mobile/1-call/545343_comment.html'
p1340
aS'http://product.pconline.com.cn/mobile/koobee/466001_comment.html'
p1341
aS'http://product.pconline.com.cn/mobile/meizu/563192_comment.html'
p1342
aS'http://product.pconline.com.cn/mobile/lenovo/581647_comment.html'
p1343
aS'http://product.pconline.com.cn/mobile/samsung/594008_comment.html'
p1344
aS'http://product.pconline.com.cn/mobile/huawei/544366_comment.html'
p1345
aS'http://product.pconline.com.cn/mobile/philips/586274_comment.html'
p1346
aS'http://product.pconline.com.cn/mobile/boway/552356_comment.html'
p1347
aS'http://product.pconline.com.cn/mobile/1-call/545335_comment.html'
p1348
aS'http://product.pconline.com.cn/mobile/phicomm/567883_comment.html'
p1349
aS'http://product.pconline.com.cn/mobile/samsung/577235_comment.html'
p1350
aS'http://product.pconline.com.cn/mobile/eastcom/519902_comment.html'
p1351
aS'http://product.pconline.com.cn/mobile/philips/515660_comment.html'
p1352
aS'http://product.pconline.com.cn/mobile/de/527647_comment.html'
p1353
aS'http://product.pconline.com.cn/mobile/lenovo/577478_comment.html'
p1354
aS'http://product.pconline.com.cn/mobile/yibainian/548749_comment.html'
p1355
aS'http://product.pconline.com.cn/mobile/sharp/514308_comment.html'
p1356
aS'http://product.pconline.com.cn/mobile/huawei/597368_comment.html'
p1357
aS'http://product.pconline.com.cn/mobile/dakele/554137_comment.html'
p1358
aS'http://product.pconline.com.cn/mobile/zte/551037_comment.html'
p1359
aS'http://product.pconline.com.cn/mobile/gionee/594677_comment.html'
p1360
aS'http://product.pconline.com.cn/mobile/zte/540651_comment.html'
p1361
aS'http://product.pconline.com.cn/mobile/beidou/563537_comment.html'
p1362
aS'http://product.pconline.com.cn/mobile/alcatel/517188_comment.html'
p1363
aS'http://product.pconline.com.cn/mobile/honor/561721_comment.html'
p1364
aS'http://product.pconline.com.cn/mobile/nubia/603975_comment.html'
p1365
aS'http://product.pconline.com.cn/mobile/cmcc/569990_comment.html'
p1366
aS'http://product.pconline.com.cn/mobile/micro/589457_comment.html'
p1367
aS'http://product.pconline.com.cn/mobile/tcl/582427_comment.html'
p1368
aS'http://product.pconline.com.cn/mobile/koobee/465557_comment.html'
p1369
aS'http://product.pconline.com.cn/mobile/alcatel/229343_comment.html'
p1370
aS'http://product.pconline.com.cn/mobile/boway/601547_comment.html'
p1371
aS'http://product.pconline.com.cn/mobile/ramos/604154_comment.html'
p1372
aS'http://product.pconline.com.cn/mobile/boway/558933_comment.html'
p1373
aS'http://product.pconline.com.cn/mobile/honor/594971_comment.html'
p1374
aS'http://product.pconline.com.cn/mobile/gionee/604168_comment.html'
p1375
aS'http://product.pconline.com.cn/mobile/hasee/604176_comment.html'
p1376
aS'http://product.pconline.com.cn/mobile/nokia/526534_comment.html'
p1377
aS'http://product.pconline.com.cn/mobile/runbo/574448_comment.html'
p1378
aS'http://product.pconline.com.cn/mobile/lenovo/569102_comment.html'
p1379
aS'http://product.pconline.com.cn/mobile/philips/576438_comment.html'
p1380
aS'http://product.pconline.com.cn/mobile/koobee/465439_comment.html'
p1381
aS'http://product.pconline.com.cn/mobile/bird/556353_comment.html'
p1382
aS'http://product.pconline.com.cn/mobile/tcl/587769_comment.html'
p1383
aS'http://product.pconline.com.cn/mobile/philips/484859_comment.html'
p1384
aS'http://product.pconline.com.cn/mobile/philips/558786_comment.html'
p1385
aS'http://product.pconline.com.cn/mobile/nokia/563501_comment.html'
p1386
aS'http://product.pconline.com.cn/mobile/zte/585052_comment.html'
p1387
aS'http://product.pconline.com.cn/mobile/xika/473054_comment.html'
p1388
aS'http://product.pconline.com.cn/mobile/beidou/601629_comment.html'
p1389
aS'http://product.pconline.com.cn/mobile/koobee/553637_comment.html'
p1390
aS'http://product.pconline.com.cn/mobile/zte/538731_comment.html'
p1391
aS'http://product.pconline.com.cn/mobile/tcl/549581_comment.html'
p1392
aS'http://product.pconline.com.cn/mobile/mc/547491_comment.html'
p1393
aS'http://product.pconline.com.cn/mobile/samsung/487341_comment.html'
p1394
aS'http://product.pconline.com.cn/mobile/hasee/569296_comment.html'
p1395
aS'http://product.pconline.com.cn/mobile/yitong/401804_comment.html'
p1396
aS'http://product.pconline.com.cn/mobile/honor/580145_comment.html'
p1397
aS'http://product.pconline.com.cn/mobile/huawei/607348_comment.html'
p1398
aS'http://product.pconline.com.cn/mobile/htc/592371_comment.html'
p1399
aS'http://product.pconline.com.cn/mobile/huawei/591527_comment.html'
p1400
aS'http://product.pconline.com.cn/mobile/miui/602286_comment.html'
p1401
aS'http://product.pconline.com.cn/mobile/hike/544395_comment.html'
p1402
aS'http://product.pconline.com.cn/mobile/coolpad/577532_comment.html'
p1403
aS'http://product.pconline.com.cn/mobile/nokia/530115_comment.html'
p1404
aS'http://product.pconline.com.cn/mobile/zhuopu/561972_comment.html'
p1405
aS'http://product.pconline.com.cn/mobile/lenovo/585829_comment.html'
p1406
aS'http://product.pconline.com.cn/mobile/coolpad/560585_comment.html'
p1407
aS'http://product.pconline.com.cn/mobile/sanygroup/592447_comment.html'
p1408
aS'http://product.pconline.com.cn/mobile/aoro/597297_comment.html'
p1409
aS'http://product.pconline.com.cn/mobile/bubugao/585067_comment.html'
p1410
aS'http://product.pconline.com.cn/mobile/huawei/607347_comment.html'
p1411
aS'http://product.pconline.com.cn/mobile/huawei/577070_comment.html'
p1412
aS'http://product.pconline.com.cn/mobile/alcatel/517329_comment.html'
p1413
aS'http://product.pconline.com.cn/mobile/changhong/496626_comment.html'
p1414
aS'http://product.pconline.com.cn/mobile/htc/585579_comment.html'
p1415
aS'http://product.pconline.com.cn/mobile/coolpad/559491_comment.html'
p1416
aS'http://product.pconline.com.cn/mobile/changhong/562128_comment.html'
p1417
aS'http://product.pconline.com.cn/mobile/coolpad/577531_comment.html'
p1418
aS'http://product.pconline.com.cn/mobile/lenovo/577129_comment.html'
p1419
aS'http://product.pconline.com.cn/mobile/doov/515662_comment.html'
p1420
aS'http://product.pconline.com.cn/mobile/alcatel/517327_comment.html'
p1421
aS'http://product.pconline.com.cn/mobile/huawei/535420_comment.html'
p1422
aS'http://product.pconline.com.cn/mobile/galaxy/558348_comment.html'
p1423
aS'http://product.pconline.com.cn/mobile/gionee/563179_comment.html'
p1424
aS'http://product.pconline.com.cn/mobile/samsung/570328_comment.html'
p1425
aS'http://product.pconline.com.cn/mobile/coolpad/554655_comment.html'
p1426
aS'http://product.pconline.com.cn/mobile/newman/586881_comment.html'
p1427
aS'http://product.pconline.com.cn/mobile/lefeng/551489_comment.html'
p1428
aS'http://product.pconline.com.cn/mobile/huawei/605316_comment.html'
p1429
aS'http://product.pconline.com.cn/mobile/pantech/537408_comment.html'
p1430
aS'http://product.pconline.com.cn/mobile/miui/581906_comment.html'
p1431
aS'http://product.pconline.com.cn/mobile/tcl/533233_comment.html'
p1432
aS'http://product.pconline.com.cn/mobile/zte/595591_comment.html'
p1433
aS'http://product.pconline.com.cn/mobile/phicomm/568081_comment.html'
p1434
aS'http://product.pconline.com.cn/mobile/motorola/588251_comment.html'
p1435
aS'http://product.pconline.com.cn/mobile/samsung/571559_comment.html'
p1436
aS'http://product.pconline.com.cn/mobile/fdt/548715_comment.html'
p1437
aS'http://product.pconline.com.cn/mobile/lg/567645_comment.html'
p1438
aS'http://product.pconline.com.cn/mobile/oneplus/580384_comment.html'
p1439
aS'http://product.pconline.com.cn/mobile/apple/601255_comment.html'
p1440
aS'http://product.pconline.com.cn/mobile/coolpad/557847_comment.html'
p1441
aS'http://product.pconline.com.cn/mobile/oneplus/572225_comment.html'
p1442
aS'http://product.pconline.com.cn/mobile/gax/556272_comment.html'
p1443
aS'http://product.pconline.com.cn/mobile/zte/603803_comment.html'
p1444
aS'http://product.pconline.com.cn/mobile/doov/534079_comment.html'
p1445
aS'http://product.pconline.com.cn/mobile/huawei/575895_comment.html'
p1446
aS'http://product.pconline.com.cn/mobile/asus/456956_comment.html'
p1447
aS'http://product.pconline.com.cn/mobile/zte/603962_comment.html'
p1448
aS'http://product.pconline.com.cn/mobile/nubia/563677_comment.html'
p1449
aS'http://product.pconline.com.cn/mobile/coolpad/573687_comment.html'
p1450
aS'http://product.pconline.com.cn/mobile/huawei/494096_comment.html'
p1451
aS'http://product.pconline.com.cn/mobile/zte/577371_comment.html'
p1452
aS'http://product.pconline.com.cn/mobile/gionee/604706_comment.html'
p1453
aS'http://product.pconline.com.cn/mobile/huawei/536943_comment.html'
p1454
aS'http://product.pconline.com.cn/mobile/philips/504011_comment.html'
p1455
aS'http://product.pconline.com.cn/mobile/htc/554860_comment.html'
p1456
aS'http://product.pconline.com.cn/mobile/lg/545445_comment.html'
p1457
aS'http://product.pconline.com.cn/mobile/lg/562485_comment.html'
p1458
aS'http://product.pconline.com.cn/mobile/nokia/498970_comment.html'
p1459
aS'http://product.pconline.com.cn/mobile/coolpad/551568_comment.html'
p1460
aS'http://product.pconline.com.cn/mobile/amoi/553457_comment.html'
p1461
aS'http://product.pconline.com.cn/mobile/tcl/553201_comment.html'
p1462
aS'http://product.pconline.com.cn/mobile/coolpad/577085_comment.html'
p1463
aS'http://product.pconline.com.cn/mobile/meitukiss/567270_comment.html'
p1464
aS'http://product.pconline.com.cn/mobile/doov/558071_comment.html'
p1465
aS'http://product.pconline.com.cn/mobile/lg/563833_comment.html'
p1466
aS'http://product.pconline.com.cn/mobile/sony/553616_comment.html'
p1467
aS'http://product.pconline.com.cn/mobile/sharp/580427_comment.html'
p1468
aS'http://product.pconline.com.cn/mobile/philips/504314_comment.html'
p1469
aS'http://product.pconline.com.cn/mobile/honor/575358_comment.html'
p1470
aS'http://product.pconline.com.cn/mobile/cmcc/550013_comment.html'
p1471
aS'http://product.pconline.com.cn/mobile/meizu/579827_comment.html'
p1472
aS'http://product.pconline.com.cn/mobile/changhong/589678_comment.html'
p1473
aS'http://product.pconline.com.cn/mobile/micro/589437_comment.html'
p1474
aS'http://product.pconline.com.cn/mobile/samsung/577229_comment.html'
p1475
aS'http://product.pconline.com.cn/mobile/lenovo/577112_comment.html'
p1476
aS'http://product.pconline.com.cn/mobile/17fox/535147_comment.html'
p1477
aS'http://product.pconline.com.cn/mobile/apple/560150_comment.html'
p1478
aS'http://product.pconline.com.cn/mobile/samsung/607850_comment.html'
p1479
aS'http://product.pconline.com.cn/mobile/lenovo/577501_comment.html'
p1480
aS'http://product.pconline.com.cn/mobile/changhong/425406_comment.html'
p1481
aS'http://product.pconline.com.cn/mobile/honor/563486_comment.html'
p1482
aS'http://product.pconline.com.cn/mobile/coolpad/561399_comment.html'
p1483
aS'http://product.pconline.com.cn/mobile/sony/541276_comment.html'
p1484
aS'http://product.pconline.com.cn/mobile/philips/564289_comment.html'
p1485
aS'http://product.pconline.com.cn/mobile/meizu/556285_comment.html'
p1486
aS'http://product.pconline.com.cn/mobile/sony/594842_comment.html'
p1487
aS'http://product.pconline.com.cn/mobile/beidou/576345_comment.html'
p1488
aS'http://product.pconline.com.cn/mobile/alcatel/518615_comment.html'
p1489
aS'http://product.pconline.com.cn/mobile/honor/596650_comment.html'
p1490
aS'http://product.pconline.com.cn/mobile/sbyh/567055_comment.html'
p1491
aS'http://product.pconline.com.cn/mobile/coolpad/593467_comment.html'
p1492
aS'http://product.pconline.com.cn/mobile/lenovo/570726_comment.html'
p1493
aS'http://product.pconline.com.cn/mobile/philips/517345_comment.html'
p1494
aS'http://product.pconline.com.cn/mobile/sharp/408039_comment.html'
p1495
aS'http://product.pconline.com.cn/mobile/htc/585372_comment.html'
p1496
aS'http://product.pconline.com.cn/mobile/thl/560288_comment.html'
p1497
aS'http://product.pconline.com.cn/mobile/coolpad/577091_comment.html'
p1498
aS'http://product.pconline.com.cn/mobile/cmcc/593392_comment.html'
p1499
aS'http://product.pconline.com.cn/mobile/miui/572689_comment.html'
p1500
aS'http://product.pconline.com.cn/mobile/sony/547459_comment.html'
p1501
aS'http://product.pconline.com.cn/mobile/koobee/582690_comment.html'
p1502
aS'http://product.pconline.com.cn/mobile/samsung/570589_comment.html'
p1503
aS'http://product.pconline.com.cn/mobile/sony/537097_comment.html'
p1504
aS'http://product.pconline.com.cn/mobile/haier/589690_comment.html'
p1505
aS'http://product.pconline.com.cn/mobile/coolpad/539389_comment.html'
p1506
aS'http://product.pconline.com.cn/mobile/smartisan/585997_comment.html'
p1507
aS'http://product.pconline.com.cn/mobile/philips/435492_comment.html'
p1508
aS'http://product.pconline.com.cn/mobile/huawei/563262_comment.html'
p1509
aS'http://product.pconline.com.cn/mobile/zte/569623_comment.html'
p1510
aS'http://product.pconline.com.cn/mobile/huawei/591528_comment.html'
p1511
aS'http://product.pconline.com.cn/mobile/infocus/576555_comment.html'
p1512
aS'http://product.pconline.com.cn/mobile/nokia/524644_comment.html'
p1513
aS'http://product.pconline.com.cn/mobile/bird/556348_comment.html'
p1514
aS'http://product.pconline.com.cn/mobile/changhong/507229_comment.html'
p1515
aS'http://product.pconline.com.cn/mobile/samsung/576833_comment.html'
p1516
aS'http://product.pconline.com.cn/mobile/aoro/561582_comment.html'
p1517
aS'http://product.pconline.com.cn/mobile/boway/589775_comment.html'
p1518
aS'http://product.pconline.com.cn/mobile/changhong/250913_comment.html'
p1519
aS'http://product.pconline.com.cn/mobile/tcl/567919_comment.html'
p1520
aS'http://product.pconline.com.cn/mobile/meizu/585858_comment.html'
p1521
aS'http://product.pconline.com.cn/mobile/17fox/543976_comment.html'
p1522
aS'http://product.pconline.com.cn/mobile/changhong/425412_comment.html'
p1523
aS'http://product.pconline.com.cn/mobile/cmcc/575257_comment.html'
p1524
aS'http://product.pconline.com.cn/mobile/lenovo/577488_comment.html'
p1525
aS'http://product.pconline.com.cn/mobile/samsung/526395_comment.html'
p1526
aS'http://product.pconline.com.cn/mobile/zte/577440_comment.html'
p1527
aS'http://product.pconline.com.cn/mobile/doov/515665_comment.html'
p1528
aS'http://product.pconline.com.cn/mobile/ivvi/600870_comment.html'
p1529
aS'http://product.pconline.com.cn/mobile/lg/571490_comment.html'
p1530
aS'http://product.pconline.com.cn/mobile/k_touch/545065_comment.html'
p1531
aS'http://product.pconline.com.cn/mobile/philips/600494_comment.html'
p1532
aS'http://product.pconline.com.cn/mobile/huawei/550924_comment.html'
p1533
aS'http://product.pconline.com.cn/mobile/apple/576910_comment.html'
p1534
aS'http://product.pconline.com.cn/mobile/infocus/562967_comment.html'
p1535
aS'http://product.pconline.com.cn/mobile/miui/581990_comment.html'
p1536
aS'http://product.pconline.com.cn/mobile/huawei/588407_comment.html'
p1537
aS'http://product.pconline.com.cn/mobile/fdt/548712_comment.html'
p1538
aS'http://product.pconline.com.cn/mobile/nubia/604402_comment.html'
p1539
aS'http://product.pconline.com.cn/mobile/asus/587056_comment.html'
p1540
aS'http://product.pconline.com.cn/mobile/meizu/512009_comment.html'
p1541
aS'http://product.pconline.com.cn/mobile/nokia/542654_comment.html'
p1542
aS'http://product.pconline.com.cn/mobile/boway/552357_comment.html'
p1543
aS'http://product.pconline.com.cn/mobile/gfive/542108_comment.html'
p1544
aS'http://product.pconline.com.cn/mobile/koobee/566382_comment.html'
p1545
aS'http://product.pconline.com.cn/mobile/miui/602328_comment.html'
p1546
aS'http://product.pconline.com.cn/mobile/huawei/550948_comment.html'
p1547
aS'http://product.pconline.com.cn/mobile/philips/553326_comment.html'
p1548
aS'http://product.pconline.com.cn/mobile/100+/567301_comment.html'
p1549
aS'http://product.pconline.com.cn/mobile/nokia/506190_comment.html'
p1550
aS'http://product.pconline.com.cn/mobile/lenovo/577122_comment.html'
p1551
aS'http://product.pconline.com.cn/mobile/samsung/569099_comment.html'
p1552
aS'http://product.pconline.com.cn/mobile/coolpad/575024_comment.html'
p1553
aS'http://product.pconline.com.cn/mobile/philips/548780_comment.html'
p1554
aS'http://product.pconline.com.cn/mobile/hyundai/527851_comment.html'
p1555
aS'http://product.pconline.com.cn/mobile/lenovo/596614_comment.html'
p1556
aS'http://product.pconline.com.cn/mobile/zhenai/511601_comment.html'
p1557
aS'http://product.pconline.com.cn/mobile/oppo/605278_comment.html'
p1558
aS'http://product.pconline.com.cn/mobile/gionee/576993_comment.html'
p1559
aS'http://product.pconline.com.cn/mobile/samsung/576832_comment.html'
p1560
aS'http://product.pconline.com.cn/mobile/gfive/542156_comment.html'
p1561
aS'http://product.pconline.com.cn/mobile/bluesky/533170_comment.html'
p1562
aS'http://product.pconline.com.cn/mobile/asus/581418_comment.html'
p1563
aS'http://product.pconline.com.cn/mobile/meizu/604967_comment.html'
p1564
aS'http://product.pconline.com.cn/mobile/oneplus/579839_comment.html'
p1565
aS'http://product.pconline.com.cn/mobile/letv/582199_comment.html'
p1566
aS'http://product.pconline.com.cn/mobile/hike/532590_comment.html'
p1567
aS'http://product.pconline.com.cn/mobile/oppo/579834_comment.html'
p1568
aS'http://product.pconline.com.cn/mobile/phicomm/567974_comment.html'
p1569
aS'http://product.pconline.com.cn/mobile/apple/565372_comment.html'
p1570
aS'http://product.pconline.com.cn/mobile/hasee/559700_comment.html'
p1571
aS'http://product.pconline.com.cn/mobile/honor/593571_comment.html'
p1572
aS'http://product.pconline.com.cn/mobile/boway/552233_comment.html'
p1573
aS'http://product.pconline.com.cn/mobile/oppo/571213_comment.html'
p1574
aS'http://product.pconline.com.cn/mobile/TOOKY/555238_comment.html'
p1575
aS'http://product.pconline.com.cn/mobile/huawei/589888_comment.html'
p1576
aS'http://product.pconline.com.cn/mobile/coolpad/543591_comment.html'
p1577
aS'http://product.pconline.com.cn/mobile/changhong/425464_comment.html'
p1578
aS'http://product.pconline.com.cn/mobile/k_touch/550749_comment.html'
p1579
aS'http://product.pconline.com.cn/mobile/lg/532899_comment.html'
p1580
aS'http://product.pconline.com.cn/mobile/samsung/564792_comment.html'
p1581
aS'http://product.pconline.com.cn/mobile/veaka/561621_comment.html'
p1582
aS'http://product.pconline.com.cn/mobile/honor/565480_comment.html'
p1583
aS'http://product.pconline.com.cn/mobile/sharp/408037_comment.html'
p1584
aS'http://product.pconline.com.cn/mobile/huawei/597857_comment.html'
p1585
aS'http://product.pconline.com.cn/mobile/coolpad/608705_comment.html'
p1586
aS'http://product.pconline.com.cn/mobile/kxd/547704_comment.html'
p1587
aS'http://product.pconline.com.cn/mobile/koobee/575005_comment.html'
p1588
aS'http://product.pconline.com.cn/mobile/samsung/553378_comment.html'
p1589
aS'http://product.pconline.com.cn/mobile/amoi/551729_comment.html'
p1590
aS'http://product.pconline.com.cn/mobile/newman/545945_comment.html'
p1591
aS'http://product.pconline.com.cn/mobile/apple/433394_comment.html'
p1592
aS'http://product.pconline.com.cn/mobile/motorola/547863_comment.html'
p1593
aS'http://product.pconline.com.cn/mobile/micro/596807_comment.html'
p1594
aS'http://product.pconline.com.cn/mobile/apple/601273_comment.html'
p1595
aS'http://product.pconline.com.cn/mobile/nokia/502862_comment.html'
p1596
aS'http://product.pconline.com.cn/mobile/asus/561305_comment.html'
p1597
aS'http://product.pconline.com.cn/mobile/asus/602014_comment.html'
p1598
aS'http://product.pconline.com.cn/mobile/amoi/463182_comment.html'
p1599
aS'http://product.pconline.com.cn/mobile/asus/553657_comment.html'
p1600
aS'http://product.pconline.com.cn/mobile/zte/569620_comment.html'
p1601
aS'http://product.pconline.com.cn/mobile/motorola/529534_comment.html'
p1602
aS'http://product.pconline.com.cn/mobile/samsung/562662_comment.html'
p1603
aS'http://product.pconline.com.cn/mobile/hasee/604175_comment.html'
p1604
aS'http://product.pconline.com.cn/mobile/boway/552353_comment.html'
p1605
aS'http://product.pconline.com.cn/mobile/zhenai/511261_comment.html'
p1606
aS'http://product.pconline.com.cn/mobile/oppo/562613_comment.html'
p1607
aS'http://product.pconline.com.cn/mobile/oneplus/597170_comment.html'
p1608
aS'http://product.pconline.com.cn/mobile/honor/594969_comment.html'
p1609
aS'http://product.pconline.com.cn/mobile/coolpad/577083_comment.html'
p1610
aS'http://product.pconline.com.cn/mobile/sony/568798_comment.html'
p1611
aS'http://product.pconline.com.cn/mobile/beidou/546163_comment.html'
p1612
aS'http://product.pconline.com.cn/mobile/tcl/583601_comment.html'
p1613
aS'http://product.pconline.com.cn/mobile/coolpad/582080_comment.html'
p1614
aS'http://product.pconline.com.cn/mobile/zhenai/511110_comment.html'
p1615
aS'http://product.pconline.com.cn/mobile/zte/538616_comment.html'
p1616
aS'http://product.pconline.com.cn/mobile/amoi/540622_comment.html'
p1617
aS'http://product.pconline.com.cn/mobile/sonim/360896_comment.html'
p1618
aS'http://product.pconline.com.cn/mobile/gfive/542161_comment.html'
p1619
aS'http://product.pconline.com.cn/mobile/difo/526186_comment.html'
p1620
aS'http://product.pconline.com.cn/mobile/phicomm/528995_comment.html'
p1621
aS'http://product.pconline.com.cn/mobile/tcl/580743_comment.html'
p1622
aS'http://product.pconline.com.cn/mobile/koobee/540916_comment.html'
p1623
aS'http://product.pconline.com.cn/mobile/nokia/502861_comment.html'
p1624
aS'http://product.pconline.com.cn/mobile/htc/577576_comment.html'
p1625
aS'http://product.pconline.com.cn/mobile/lenovo/577483_comment.html'
p1626
aS'http://product.pconline.com.cn/mobile/bubugao/598327_comment.html'
p1627
aS'http://product.pconline.com.cn/mobile/honor/580497_comment.html'
p1628
aS'http://product.pconline.com.cn/mobile/lenovo/562824_comment.html'
p1629
aS'http://product.pconline.com.cn/mobile/nokia/573069_comment.html'
p1630
aS'http://product.pconline.com.cn/mobile/smartisan/575368_comment.html'
p1631
aS'http://product.pconline.com.cn/mobile/gionee/568480_comment.html'
p1632
aS'http://product.pconline.com.cn/mobile/coolpad/607160_comment.html'
p1633
aS'http://product.pconline.com.cn/mobile/pantech/536556_comment.html'
p1634
aS'http://product.pconline.com.cn/mobile/doov/416682_comment.html'
p1635
aS'http://product.pconline.com.cn/mobile/oppo/584879_comment.html'
p1636
aS'http://product.pconline.com.cn/mobile/yibainian/530140_comment.html'
p1637
aS'http://product.pconline.com.cn/mobile/miui/573655_comment.html'
p1638
aS'http://product.pconline.com.cn/mobile/gigaset/600409_comment.html'
p1639
aS'http://product.pconline.com.cn/mobile/amoi/516046_comment.html'
p1640
aS'http://product.pconline.com.cn/mobile/lg/585166_comment.html'
p1641
aS'http://product.pconline.com.cn/mobile/bubugao/566456_comment.html'
p1642
aS'http://product.pconline.com.cn/mobile/nubia/565906_comment.html'
p1643
aS'http://product.pconline.com.cn/mobile/beidou/513051_comment.html'
p1644
aS'http://product.pconline.com.cn/mobile/ws/544708_comment.html'
p1645
aS'http://product.pconline.com.cn/mobile/tcl/586670_comment.html'
p1646
aS'http://product.pconline.com.cn/mobile/philips/484857_comment.html'
p1647
aS'http://product.pconline.com.cn/mobile/meitukiss/542209_comment.html'
p1648
aS'http://product.pconline.com.cn/mobile/gionee/558169_comment.html'
p1649
aS'http://product.pconline.com.cn/mobile/honor/574836_comment.html'
p1650
aS'http://product.pconline.com.cn/mobile/honor/602594_comment.html'
p1651
aS'http://product.pconline.com.cn/mobile/huawei/602573_comment.html'
p1652
aS'http://product.pconline.com.cn/mobile/koobee/543365_comment.html'
p1653
aS'http://product.pconline.com.cn/mobile/coolpad/581175_comment.html'
p1654
aS'http://product.pconline.com.cn/mobile/philips/570392_comment.html'
p1655
aS'http://product.pconline.com.cn/mobile/changhong/425440_comment.html'
p1656
aS'http://product.pconline.com.cn/mobile/lg/535794_comment.html'
p1657
aS'http://product.pconline.com.cn/mobile/qingcheng/545351_comment.html'
p1658
aS'http://product.pconline.com.cn/mobile/zte/588558_comment.html'
p1659
aS'http://product.pconline.com.cn/mobile/honor/568381_comment.html'
p1660
aS'http://product.pconline.com.cn/mobile/samsung/608054_comment.html'
p1661
aS'http://product.pconline.com.cn/mobile/phicomm/568082_comment.html'
p1662
aS'http://product.pconline.com.cn/mobile/miui/565494_comment.html'
p1663
aS'http://product.pconline.com.cn/mobile/gtjiatong/503516_comment.html'
p1664
aS'http://product.pconline.com.cn/mobile/huawei/551458_comment.html'
p1665
aS'http://product.pconline.com.cn/mobile/honor/575355_comment.html'
p1666
aS'http://product.pconline.com.cn/mobile/lg/554891_comment.html'
p1667
aS'http://product.pconline.com.cn/mobile/hasee/566455_comment.html'
p1668
aS'http://product.pconline.com.cn/mobile/pantech/524786_comment.html'
p1669
aS'http://product.pconline.com.cn/mobile/samsung/577232_comment.html'
p1670
aS'http://product.pconline.com.cn/mobile/lenovo/577128_comment.html'
p1671
aS'http://product.pconline.com.cn/mobile/coolpad/577530_comment.html'
p1672
aS'http://product.pconline.com.cn/mobile/jiayu/543899_comment.html'
p1673
aS'http://product.pconline.com.cn/mobile/coolpad/566747_comment.html'
p1674
aS'http://product.pconline.com.cn/mobile/thl/560290_comment.html'
p1675
aS'http://product.pconline.com.cn/mobile/fdt/548716_comment.html'
p1676
aS'http://product.pconline.com.cn/mobile/pioneer/582339_comment.html'
p1677
aS'http://product.pconline.com.cn/mobile/samsung/604979_comment.html'
p1678
aS'http://product.pconline.com.cn/mobile/philips/424821_comment.html'
p1679
aS'http://product.pconline.com.cn/mobile/samsung/577224_comment.html'
p1680
aS'http://product.pconline.com.cn/mobile/htc/581429_comment.html'
p1681
aS'http://product.pconline.com.cn/mobile/ugate/557896_comment.html'
p1682
aS'http://product.pconline.com.cn/mobile/fdt/548708_comment.html'
p1683
aS'http://product.pconline.com.cn/mobile/changhong/557716_comment.html'
p1684
aS'http://product.pconline.com.cn/mobile/miui/581310_comment.html'
p1685
aS'http://product.pconline.com.cn/mobile/boway/563946_comment.html'
p1686
aS'http://product.pconline.com.cn/mobile/shengda/544650_comment.html'
p1687
aS'http://product.pconline.com.cn/mobile/samsung/576982_comment.html'
p1688
aS'http://product.pconline.com.cn/mobile/huawei/577074_comment.html'
p1689
aS'http://product.pconline.com.cn/mobile/samsung/565034_comment.html'
p1690
aS'http://product.pconline.com.cn/mobile/htc/594027_comment.html'
p1691
aS'http://product.pconline.com.cn/mobile/samsung/565775_comment.html'
p1692
aS'http://product.pconline.com.cn/mobile/sharp/503102_comment.html'
p1693
aS'http://product.pconline.com.cn/mobile/tcl/541795_comment.html'
p1694
aS'http://product.pconline.com.cn/mobile/koobee/526166_comment.html'
p1695
aS'http://product.pconline.com.cn/mobile/meizu/560918_comment.html'
p1696
aS'http://product.pconline.com.cn/mobile/philips/411729_comment.html'
p1697
aS'http://product.pconline.com.cn/mobile/doov/534077_comment.html'
p1698
aS'http://product.pconline.com.cn/mobile/pantech/505895_comment.html'
p1699
aS'http://product.pconline.com.cn/mobile/infocus/561141_comment.html'
p1700
aS'http://product.pconline.com.cn/mobile/coolpad/549048_comment.html'
p1701
aS'http://product.pconline.com.cn/mobile/acer/545516_comment.html'
p1702
aS'http://product.pconline.com.cn/mobile/asus/561302_comment.html'
p1703
aS'http://product.pconline.com.cn/mobile/nokia/540913_comment.html'
p1704
aS'http://product.pconline.com.cn/mobile/tcl/575774_comment.html'
p1705
aS'http://product.pconline.com.cn/mobile/oppo/582137_comment.html'
p1706
aS'http://product.pconline.com.cn/mobile/letv/601907_comment.html'
p1707
aS'http://product.pconline.com.cn/mobile/samsung/577185_comment.html'
p1708
aS'http://product.pconline.com.cn/mobile/miui/572687_comment.html'
p1709
aS'http://product.pconline.com.cn/mobile/sony/599712_comment.html'
p1710
aS'http://product.pconline.com.cn/mobile/nubia/565907_comment.html'
p1711
aS'http://product.pconline.com.cn/mobile/meizu/552680_comment.html'
p1712
aS'http://product.pconline.com.cn/mobile/boway/552236_comment.html'
p1713
aS'http://product.pconline.com.cn/mobile/coolpad/524834_comment.html'
p1714
aS'http://product.pconline.com.cn/mobile/lenovo/585856_comment.html'
p1715
aS'http://product.pconline.com.cn/mobile/bubugao/561606_comment.html'
p1716
aS'http://product.pconline.com.cn/mobile/sony/581813_comment.html'
p1717
aS'http://product.pconline.com.cn/mobile/lg/529797_comment.html'
p1718
aS'http://product.pconline.com.cn/mobile/coolpad/603614_comment.html'
p1719
aS'http://product.pconline.com.cn/mobile/infocus/574542_comment.html'
p1720
aS'http://product.pconline.com.cn/mobile/pantech/539632_comment.html'
p1721
aS'http://product.pconline.com.cn/mobile/coolpad/563679_comment.html'
p1722
aS'http://product.pconline.com.cn/mobile/asus/574976_comment.html'
p1723
aS'http://product.pconline.com.cn/mobile/samsung/588248_comment.html'
p1724
aS'http://product.pconline.com.cn/mobile/htc/577802_comment.html'
p1725
aS'http://product.pconline.com.cn/mobile/lenovo/577495_comment.html'
p1726
aS'http://product.pconline.com.cn/mobile/htc/567273_comment.html'
p1727
aS'http://product.pconline.com.cn/mobile/samsung/562805_comment.html'
p1728
aS'http://product.pconline.com.cn/mobile/ws/531377_comment.html'
p1729
aS'http://product.pconline.com.cn/mobile/coolpad/550923_comment.html'
p1730
aS'http://product.pconline.com.cn/mobile/goophone/545568_comment.html'
p1731
aS'http://product.pconline.com.cn/mobile/TOOKY/548177_comment.html'
p1732
aS'http://product.pconline.com.cn/mobile/philips/510506_comment.html'
p1733
aS'http://product.pconline.com.cn/mobile/altek/474864_comment.html'
p1734
aS'http://product.pconline.com.cn/mobile/lenovo/602451_comment.html'
p1735
aS'http://product.pconline.com.cn/mobile/lenovo/577474_comment.html'
p1736
aS'http://product.pconline.com.cn/mobile/htc/603028_comment.html'
p1737
aS'http://product.pconline.com.cn/mobile/dec/397957_comment.html'
p1738
aS'http://product.pconline.com.cn/mobile/tcl/580265_comment.html'
p1739
aS'http://product.pconline.com.cn/mobile/coolpad/581373_comment.html'
p1740
aS'http://product.pconline.com.cn/mobile/conquest/580800_comment.html'
p1741
aS'http://product.pconline.com.cn/mobile/neo/548371_comment.html'
p1742
aS'http://product.pconline.com.cn/mobile/zte/577368_comment.html'
p1743
aS'http://product.pconline.com.cn/mobile/lenovo/605275_comment.html'
p1744
aS'http://product.pconline.com.cn/mobile/miui/587928_comment.html'
p1745
aS'http://product.pconline.com.cn/mobile/zte/537559_comment.html'
p1746
aS'http://product.pconline.com.cn/mobile/tcl/579854_comment.html'
p1747
aS'http://product.pconline.com.cn/mobile/voto/524987_comment.html'
p1748
aS'http://product.pconline.com.cn/mobile/lg/545446_comment.html'
p1749
aS'http://product.pconline.com.cn/mobile/coolpad/544970_comment.html'
p1750
aS'http://product.pconline.com.cn/mobile/vaio/586105_comment.html'
p1751
aS'http://product.pconline.com.cn/mobile/asus/587142_comment.html'
p1752
aS'http://product.pconline.com.cn/mobile/amoi/542004_comment.html'
p1753
aS'http://product.pconline.com.cn/mobile/ramos/591451_comment.html'
p1754
aS'http://product.pconline.com.cn/mobile/haier/529703_comment.html'
p1755
aS'http://product.pconline.com.cn/mobile/lenovo/587231_comment.html'
p1756
aS'http://product.pconline.com.cn/mobile/motorola/606245_comment.html'
p1757
aS'http://product.pconline.com.cn/mobile/koobee/507953_comment.html'
p1758
aS'http://product.pconline.com.cn/mobile/letv/608760_comment.html'
p1759
aS'http://product.pconline.com.cn/mobile/gfive/546184_comment.html'
p1760
aS'http://product.pconline.com.cn/mobile/zte/596608_comment.html'
p1761
aS'http://product.pconline.com.cn/mobile/acer/600769_comment.html'
p1762
aS'http://product.pconline.com.cn/mobile/samsung/570272_comment.html'
p1763
aS'http://product.pconline.com.cn/mobile/koobee/606694_comment.html'
p1764
aS'http://product.pconline.com.cn/mobile/bubugao/575012_comment.html'
p1765
aS'http://product.pconline.com.cn/mobile/honor/562906_comment.html'
p1766
aS'http://product.pconline.com.cn/mobile/lenovo/577477_comment.html'
p1767
aS'http://product.pconline.com.cn/mobile/motorola/582439_comment.html'
p1768
aS'http://product.pconline.com.cn/mobile/vinus/522445_comment.html'
p1769
aS'http://product.pconline.com.cn/mobile/thl/550290_comment.html'
p1770
aS'http://product.pconline.com.cn/mobile/beidou/546165_comment.html'
p1771
aS'http://product.pconline.com.cn/mobile/xika/473053_comment.html'
p1772
aS'http://product.pconline.com.cn/mobile/tcl/575543_comment.html'
p1773
aS'http://product.pconline.com.cn/mobile/changhong/425431_comment.html'
p1774
aS'http://product.pconline.com.cn/mobile/samsung/571562_comment.html'
p1775
aS'http://product.pconline.com.cn/mobile/beidou/555361_comment.html'
p1776
aS'http://product.pconline.com.cn/mobile/coolpad/549441_comment.html'
p1777
aS'http://product.pconline.com.cn/mobile/coolpad/543589_comment.html'
p1778
aS'http://product.pconline.com.cn/mobile/zte/579958_comment.html'
p1779
aS'http://product.pconline.com.cn/mobile/blackberry/585214_comment.html'
p1780
aS'http://product.pconline.com.cn/mobile/coolpad/564758_comment.html'
p1781
aS'http://product.pconline.com.cn/mobile/tcl/549583_comment.html'
p1782
aS'http://product.pconline.com.cn/mobile/lenovo/551457_comment.html'
p1783
aS'http://product.pconline.com.cn/mobile/miui/594678_comment.html'
p1784
aS'http://product.pconline.com.cn/mobile/ppw/604026_comment.html'
p1785
aS'http://product.pconline.com.cn/mobile/huawei/580773_comment.html'
p1786
aS'http://product.pconline.com.cn/mobile/lg/567643_comment.html'
p1787
aS'http://product.pconline.com.cn/mobile/zte/541253_comment.html'
p1788
aS'http://product.pconline.com.cn/mobile/coolpad/582081_comment.html'
p1789
aS'http://product.pconline.com.cn/mobile/lenovo/569103_comment.html'
p1790
aS'http://product.pconline.com.cn/mobile/tcl/548314_comment.html'
p1791
aS'http://product.pconline.com.cn/mobile/huawei/608139_comment.html'
p1792
aS'http://product.pconline.com.cn/mobile/boway/568220_comment.html'
p1793
aS'http://product.pconline.com.cn/mobile/lenovo/590793_comment.html'
p1794
aS'http://product.pconline.com.cn/mobile/mc/552277_comment.html'
p1795
aS'http://product.pconline.com.cn/mobile/htc/576949_comment.html'
p1796
aS'http://product.pconline.com.cn/mobile/samsung/571558_comment.html'
p1797
aS'http://product.pconline.com.cn/mobile/lenovo/577503_comment.html'
p1798
aS'http://product.pconline.com.cn/mobile/zte/567388_comment.html'
p1799
aS'http://product.pconline.com.cn/mobile/hasee/560486_comment.html'
p1800
aS'http://product.pconline.com.cn/mobile/apple/575829_comment.html'
p1801
aS'http://product.pconline.com.cn/mobile/nec/544140_comment.html'
p1802
aS'http://product.pconline.com.cn/mobile/miui/585988_comment.html'
p1803
aS'http://product.pconline.com.cn/mobile/miui/607931_comment.html'
p1804
aS'http://product.pconline.com.cn/mobile/bubugao/555552_comment.html'
p1805
aS'http://product.pconline.com.cn/mobile/nokia/605367_comment.html'
p1806
aS'http://product.pconline.com.cn/mobile/zte/578736_comment.html'
p1807
aS'http://product.pconline.com.cn/mobile/yuandian/589461_comment.html'
p1808
aS'http://product.pconline.com.cn/mobile/huawei/576265_comment.html'
p1809
aS'http://product.pconline.com.cn/mobile/zte/577351_comment.html'
p1810
aS'http://product.pconline.com.cn/mobile/lg/557707_comment.html'
p1811
aS'http://product.pconline.com.cn/mobile/coolpad/543598_comment.html'
p1812
aS'http://product.pconline.com.cn/mobile/doov/450922_comment.html'
p1813
aS'http://product.pconline.com.cn/mobile/apple/606048_comment.html'
p1814
aS'http://product.pconline.com.cn/mobile/honor/574835_comment.html'
p1815
aS'http://product.pconline.com.cn/mobile/huawei/568668_comment.html'
p1816
aS'http://product.pconline.com.cn/mobile/amoi/463155_comment.html'
p1817
aS'http://product.pconline.com.cn/mobile/sharp/465359_comment.html'
p1818
aS'http://product.pconline.com.cn/mobile/samsung/607887_comment.html'
p1819
aS'http://product.pconline.com.cn/mobile/oneplus/579837_comment.html'
p1820
aS'http://product.pconline.com.cn/mobile/phicomm/567882_comment.html'
p1821
aS'http://product.pconline.com.cn/mobile/samsung/577019_comment.html'
p1822
aS'http://product.pconline.com.cn/mobile/philips/596505_comment.html'
p1823
aS'http://product.pconline.com.cn/mobile/micro/598969_comment.html'
p1824
aS'http://product.pconline.com.cn/mobile/bubugao/605907_comment.html'
p1825
aS'http://product.pconline.com.cn/mobile/TOOKY/548178_comment.html'
p1826
aS'http://product.pconline.com.cn/mobile/gd/548291_comment.html'
p1827
aS'http://product.pconline.com.cn/mobile/yibainian/487476_comment.html'
p1828
aS'http://product.pconline.com.cn/mobile/bubugao/595686_comment.html'
p1829
aS'http://product.pconline.com.cn/mobile/huawei/582554_comment.html'
p1830
aS'http://product.pconline.com.cn/mobile/tcl/580261_comment.html'
p1831
aS'http://product.pconline.com.cn/mobile/gionee/555575_comment.html'
p1832
aS'http://product.pconline.com.cn/mobile/htc/597623_comment.html'
p1833
aS'http://product.pconline.com.cn/mobile/ccx/555082_comment.html'
p1834
aS'http://product.pconline.com.cn/mobile/sbyh/567054_comment.html'
p1835
aS'http://product.pconline.com.cn/mobile/lenovo/562994_comment.html'
p1836
aS'http://product.pconline.com.cn/mobile/honor/599308_comment.html'
p1837
aS'http://product.pconline.com.cn/mobile/zte/596668_comment.html'
p1838
aS'http://product.pconline.com.cn/mobile/jolla/544470_comment.html'
p1839
aS'http://product.pconline.com.cn/mobile/lg/535907_comment.html'
p1840
aS'http://product.pconline.com.cn/mobile/oppo/560927_comment.html'
p1841
aS'http://product.pconline.com.cn/mobile/coolpad/608187_comment.html'
p1842
aS'http://product.pconline.com.cn/mobile/lenovo/554501_comment.html'
p1843
aS'http://product.pconline.com.cn/mobile/koobee/517611_comment.html'
p1844
aS'http://product.pconline.com.cn/mobile/tcl/543555_comment.html'
p1845
aS'http://product.pconline.com.cn/mobile/zte/577436_comment.html'
p1846
aS'http://product.pconline.com.cn/mobile/sharp/478025_comment.html'
p1847
aS'http://product.pconline.com.cn/mobile/yx/545931_comment.html'
p1848
aS'http://product.pconline.com.cn/mobile/oppo/592873_comment.html'
p1849
aS'http://product.pconline.com.cn/mobile/oneplus/567730_comment.html'
p1850
aS'http://product.pconline.com.cn/mobile/huawei/591903_comment.html'
p1851
aS'http://product.pconline.com.cn/mobile/asus/567157_comment.html'
p1852
aS'http://product.pconline.com.cn/mobile/infocus/574544_comment.html'
p1853
aS'http://product.pconline.com.cn/mobile/htc/576951_comment.html'
p1854
aS'http://product.pconline.com.cn/mobile/samsung/595649_comment.html'
p1855
aS'http://product.pconline.com.cn/mobile/philips/567248_comment.html'
p1856
aS'http://product.pconline.com.cn/mobile/gionee/608987_comment.html'
p1857
aS'http://product.pconline.com.cn/mobile/samsung/586233_comment.html'
p1858
aS'http://product.pconline.com.cn/mobile/qicool/605315_comment.html'
p1859
aS'http://product.pconline.com.cn/mobile/lenovo/585087_comment.html'
p1860
aS'http://product.pconline.com.cn/mobile/philips/522306_comment.html'
p1861
aS'http://product.pconline.com.cn/mobile/huawei/540628_comment.html'
p1862
aS'http://product.pconline.com.cn/mobile/acer/585039_comment.html'
p1863
aS'http://product.pconline.com.cn/mobile/oppo/591948_comment.html'
p1864
aS'http://product.pconline.com.cn/mobile/sonim/479115_comment.html'
p1865
aS'http://product.pconline.com.cn/mobile/changhong/425417_comment.html'
p1866
aS'http://product.pconline.com.cn/mobile/htc/569438_comment.html'
p1867
aS'http://product.pconline.com.cn/mobile/TOOKY/548362_comment.html'
p1868
aS'http://product.pconline.com.cn/mobile/lenovo/577113_comment.html'
p1869
aS'http://product.pconline.com.cn/mobile/wanlida/541487_comment.html'
p1870
aS'http://product.pconline.com.cn/mobile/meizu/603939_comment.html'
p1871
aS'http://product.pconline.com.cn/mobile/zte/577432_comment.html'
p1872
aS'http://product.pconline.com.cn/mobile/changhong/552826_comment.html'
p1873
aS'http://product.pconline.com.cn/mobile/yx/545929_comment.html'
p1874
aS'http://product.pconline.com.cn/mobile/apple/532790_comment.html'
p1875
aS'http://product.pconline.com.cn/mobile/philips/500612_comment.html'
p1876
aS'http://product.pconline.com.cn/mobile/TOOKY/541420_comment.html'
p1877
aS'http://product.pconline.com.cn/mobile/tcl/567982_comment.html'
p1878
aS'http://product.pconline.com.cn/mobile/htc/566228_comment.html'
p1879
aS'http://product.pconline.com.cn/mobile/oppo/551136_comment.html'
p1880
aS'http://product.pconline.com.cn/mobile/nuu/560304_comment.html'
p1881
aS'http://product.pconline.com.cn/mobile/k_touch/548762_comment.html'
p1882
aS'http://product.pconline.com.cn/mobile/meitukiss/607077_comment.html'
p1883
aS'http://product.pconline.com.cn/mobile/wm/570568_comment.html'
p1884
aS'http://product.pconline.com.cn/mobile/zte/541777_comment.html'
p1885
aS'http://product.pconline.com.cn/mobile/sony/571909_comment.html'
p1886
aS'http://product.pconline.com.cn/mobile/pptv/600908_comment.html'
p1887
aS'http://product.pconline.com.cn/mobile/meizu/531910_comment.html'
p1888
aS'http://product.pconline.com.cn/mobile/oppo/591077_comment.html'
p1889
aS'http://product.pconline.com.cn/mobile/coolpad/542443_comment.html'
p1890
aS'http://product.pconline.com.cn/mobile/amoi/463231_comment.html'
p1891
aS'http://product.pconline.com.cn/mobile/nokia/539202_comment.html'
p1892
aS'http://product.pconline.com.cn/mobile/hy/544810_comment.html'
p1893
aS'http://product.pconline.com.cn/mobile/nubia/557675_comment.html'
p1894
aS'http://product.pconline.com.cn/mobile/acer/552814_comment.html'
p1895
aS'http://product.pconline.com.cn/mobile/boway/568221_comment.html'
p1896
aS'http://product.pconline.com.cn/mobile/samsung/562806_comment.html'
p1897
aS'http://product.pconline.com.cn/mobile/ivvi/579383_comment.html'
p1898
aS'http://product.pconline.com.cn/mobile/philips/572504_comment.html'
p1899
aS'http://product.pconline.com.cn/mobile/coolpad/596462_comment.html'
p1900
aS'http://product.pconline.com.cn/mobile/tcl/533236_comment.html'
p1901
aS'http://product.pconline.com.cn/mobile/difo/526185_comment.html'
p1902
aS'http://product.pconline.com.cn/mobile/philips/434615_comment.html'
p1903
aS'http://product.pconline.com.cn/mobile/lg/537733_comment.html'
p1904
aS'http://product.pconline.com.cn/mobile/boway/552035_comment.html'
p1905
aS'http://product.pconline.com.cn/mobile/lg/553936_comment.html'
p1906
aS'http://product.pconline.com.cn/mobile/philips/564291_comment.html'
p1907
aS'http://product.pconline.com.cn/mobile/bluesky/509098_comment.html'
p1908
aS'http://product.pconline.com.cn/mobile/sony/588629_comment.html'
p1909
aS'http://product.pconline.com.cn/mobile/philips/554333_comment.html'
p1910
aS'http://product.pconline.com.cn/mobile/htc/573391_comment.html'
p1911
aS'http://product.pconline.com.cn/mobile/k_touch/550708_comment.html'
p1912
aS'http://product.pconline.com.cn/mobile/blackberry/546055_comment.html'
p1913
aS'http://product.pconline.com.cn/mobile/coolpad/551903_comment.html'
p1914
aS'http://product.pconline.com.cn/mobile/newman/517587_comment.html'
p1915
aS'http://product.pconline.com.cn/mobile/coolpad/554335_comment.html'
p1916
aS'http://product.pconline.com.cn/mobile/honor/573745_comment.html'
p1917
aS'http://product.pconline.com.cn/mobile/changhong/561981_comment.html'
p1918
aS'http://product.pconline.com.cn/mobile/lenovo/577460_comment.html'
p1919
aS'http://product.pconline.com.cn/mobile/wm/574136_comment.html'
p1920
aS'http://product.pconline.com.cn/mobile/hasee/604177_comment.html'
p1921
aS'http://product.pconline.com.cn/mobile/alcatel/182102_comment.html'
p1922
aS'http://product.pconline.com.cn/mobile/philips/465780_comment.html'
p1923
aS'http://product.pconline.com.cn/mobile/tcl/592207_comment.html'
p1924
aS'http://product.pconline.com.cn/mobile/zte/595134_comment.html'
p1925
aS'http://product.pconline.com.cn/mobile/lg/518887_comment.html'
p1926
aS'http://product.pconline.com.cn/mobile/sony/558297_comment.html'
p1927
aS'http://product.pconline.com.cn/mobile/bubugao/606503_comment.html'
p1928
aS'http://product.pconline.com.cn/mobile/philips/545956_comment.html'
p1929
aS'http://product.pconline.com.cn/mobile/changhong/425410_comment.html'
p1930
aS'http://product.pconline.com.cn/mobile/motorola/547860_comment.html'
p1931
aS'http://product.pconline.com.cn/mobile/lenovo/574558_comment.html'
p1932
aS'http://product.pconline.com.cn/mobile/lenovo/587081_comment.html'
p1933
aS'http://product.pconline.com.cn/mobile/philips/385286_comment.html'
p1934
aS'http://product.pconline.com.cn/mobile/bubugao/554672_comment.html'
p1935
aS'http://product.pconline.com.cn/mobile/ouxin/558374_comment.html'
p1936
aS'http://product.pconline.com.cn/mobile/huawei/596293_comment.html'
p1937
aS'http://product.pconline.com.cn/mobile/gionee/555707_comment.html'
p1938
aS'http://product.pconline.com.cn/mobile/runbo/544280_comment.html'
p1939
aS'http://product.pconline.com.cn/mobile/beidou/546085_comment.html'
p1940
aS'http://product.pconline.com.cn/mobile/philips/602596_comment.html'
p1941
aS'http://product.pconline.com.cn/mobile/meizu/602454_comment.html'
p1942
aS'http://product.pconline.com.cn/mobile/runbo/569320_comment.html'
p1943
aS'http://product.pconline.com.cn/mobile/miui/581309_comment.html'
p1944
aS'http://product.pconline.com.cn/mobile/oppo/543788_comment.html'
p1945
aS'http://product.pconline.com.cn/mobile/lenovo/594818_comment.html'
p1946
aS'http://product.pconline.com.cn/mobile/htc/557357_comment.html'
p1947
aS'http://product.pconline.com.cn/mobile/htc/566741_comment.html'
p1948
aS'http://product.pconline.com.cn/mobile/gionee/550690_comment.html'
p1949
aS'http://product.pconline.com.cn/mobile/coolpad/537171_comment.html'
p1950
aS'http://product.pconline.com.cn/mobile/nubia/530022_comment.html'
p1951
aS'http://product.pconline.com.cn/mobile/huawei/577077_comment.html'
p1952
aS'http://product.pconline.com.cn/mobile/doov/548320_comment.html'
p1953
aS'http://product.pconline.com.cn/mobile/tcl/556421_comment.html'
p1954
aS'http://product.pconline.com.cn/mobile/asus/577843_comment.html'
p1955
aS'http://product.pconline.com.cn/mobile/gionee/574449_comment.html'
p1956
aS'http://product.pconline.com.cn/mobile/letv/602331_comment.html'
p1957
aS'http://product.pconline.com.cn/mobile/lenovo/595848_comment.html'
p1958
aS'http://product.pconline.com.cn/mobile/lenovo/571615_comment.html'
p1959
aS'http://product.pconline.com.cn/mobile/lenovo/606056_comment.html'
p1960
aS'http://product.pconline.com.cn/mobile/lenovo/583532_comment.html'
p1961
aS'http://product.pconline.com.cn/mobile/zte/566379_comment.html'
p1962
aS'http://product.pconline.com.cn/mobile/philips/501505_comment.html'
p1963
aS'http://product.pconline.com.cn/mobile/lg/532672_comment.html'
p1964
aS'http://product.pconline.com.cn/mobile/lenovo/585949_comment.html'
p1965
aS'http://product.pconline.com.cn/mobile/huawei/603668_comment.html'
p1966
aS'http://product.pconline.com.cn/mobile/coolpad/524982_comment.html'
p1967
aS'http://product.pconline.com.cn/mobile/pioneer/540662_comment.html'
p1968
aS'http://product.pconline.com.cn/mobile/beidou/569645_comment.html'
p1969
aS'http://product.pconline.com.cn/mobile/coolpad/568705_comment.html'
p1970
aS'http://product.pconline.com.cn/mobile/wm/568839_comment.html'
p1971
aS'http://product.pconline.com.cn/mobile/huawei/564066_comment.html'
p1972
aS'http://product.pconline.com.cn/mobile/lenovo/553199_comment.html'
p1973
aS'http://product.pconline.com.cn/mobile/zte/577441_comment.html'
p1974
aS'http://product.pconline.com.cn/mobile/coolpad/577512_comment.html'
p1975
aS'http://product.pconline.com.cn/mobile/lenovo/579802_comment.html'
p1976
aS'http://product.pconline.com.cn/mobile/huawei/571419_comment.html'
p1977
aS'http://product.pconline.com.cn/mobile/bubugao/589132_comment.html'
p1978
aS'http://product.pconline.com.cn/mobile/sony/528332_comment.html'
p1979
aS'http://product.pconline.com.cn/mobile/lenovo/577482_comment.html'
p1980
aS'http://product.pconline.com.cn/mobile/alcatel/432890_comment.html'
p1981
aS'http://product.pconline.com.cn/mobile/nokia/487637_comment.html'
p1982
aS'http://product.pconline.com.cn/mobile/samsung/569082_comment.html'
p1983
aS'http://product.pconline.com.cn/mobile/koobee/604049_comment.html'
p1984
aS'http://product.pconline.com.cn/mobile/tcl/588732_comment.html'
p1985
aS'http://product.pconline.com.cn/mobile/philips/382575_comment.html'
p1986
aS'http://product.pconline.com.cn/mobile/samsung/577180_comment.html'
p1987
aS'http://product.pconline.com.cn/mobile/boway/581690_comment.html'
p1988
aS'http://product.pconline.com.cn/mobile/oppo/582202_comment.html'
p1989
aS'http://product.pconline.com.cn/mobile/acer/581300_comment.html'
p1990
aS'http://product.pconline.com.cn/mobile/coolpad/544971_comment.html'
p1991
aS'http://product.pconline.com.cn/mobile/philips/564292_comment.html'
p1992
aS'http://product.pconline.com.cn/mobile/tcl/580599_comment.html'
p1993
aS'http://product.pconline.com.cn/mobile/philips/506363_comment.html'
p1994
aS'http://product.pconline.com.cn/mobile/gionee/561908_comment.html'
p1995
aS'http://product.pconline.com.cn/mobile/koobee/489361_comment.html'
p1996
aS'http://product.pconline.com.cn/mobile/dakele/548000_comment.html'
p1997
aS'http://product.pconline.com.cn/mobile/nokia/532588_comment.html'
p1998
aS'http://product.pconline.com.cn/mobile/blackberry/508588_comment.html'
p1999
aS'http://product.pconline.com.cn/mobile/tcl/567914_comment.html'
p2000
aS'http://product.pconline.com.cn/mobile/lenovo/577466_comment.html'
p2001
aS'http://product.pconline.com.cn/mobile/asus/581419_comment.html'
p2002
aS'http://product.pconline.com.cn/mobile/haier/555554_comment.html'
p2003
aS'http://product.pconline.com.cn/mobile/htc/603787_comment.html'
p2004
aS'http://product.pconline.com.cn/mobile/nokia/568095_comment.html'
p2005
aS'http://product.pconline.com.cn/mobile/samsung/577177_comment.html'
p2006
aS'http://product.pconline.com.cn/mobile/huawei/575894_comment.html'
p2007
aS'http://product.pconline.com.cn/mobile/zte/608052_comment.html'
p2008
aS'http://product.pconline.com.cn/mobile/pantech/515625_comment.html'
p2009
aS'http://product.pconline.com.cn/mobile/sony/568713_comment.html'
p2010
aS'http://product.pconline.com.cn/mobile/coolpad/565402_comment.html'
p2011
aS'http://product.pconline.com.cn/mobile/coolpad/575264_comment.html'
p2012
aS'http://product.pconline.com.cn/mobile/asus/605378_comment.html'
p2013
aS'http://product.pconline.com.cn/mobile/htc/603008_comment.html'
p2014
aS'http://product.pconline.com.cn/mobile/hdc/541186_comment.html'
p2015
aS'http://product.pconline.com.cn/mobile/blackberry/589462_comment.html'
p2016
aS'http://product.pconline.com.cn/mobile/miui/581930_comment.html'
p2017
aS'http://product.pconline.com.cn/mobile/beidou/602226_comment.html'
p2018
aS'http://product.pconline.com.cn/mobile/huawei/553912_comment.html'
p2019
aS'http://product.pconline.com.cn/mobile/miui/605321_comment.html'
p2020
aS'http://product.pconline.com.cn/mobile/gionee/577508_comment.html'
p2021
aS'http://product.pconline.com.cn/mobile/pantech/510214_comment.html'
p2022
aS'http://product.pconline.com.cn/mobile/139shop/608974_comment.html'
p2023
aS'http://product.pconline.com.cn/mobile/koobee/541093_comment.html'
p2024
aS'http://product.pconline.com.cn/mobile/nec/475533_comment.html'
p2025
aS'http://product.pconline.com.cn/mobile/lenovo/577479_comment.html'
p2026
aS'http://product.pconline.com.cn/mobile/xbw/527489_comment.html'
p2027
aS'http://product.pconline.com.cn/mobile/oppo/561400_comment.html'
p2028
aS'http://product.pconline.com.cn/mobile/ivvi/593632_comment.html'
p2029
aS'http://product.pconline.com.cn/mobile/bubugao/586232_comment.html'
p2030
aS'http://product.pconline.com.cn/mobile/zte/577424_comment.html'
p2031
aS'http://product.pconline.com.cn/mobile/boway/568224_comment.html'
p2032
aS'http://product.pconline.com.cn/mobile/motorola/601782_comment.html'
p2033
aS'http://product.pconline.com.cn/mobile/zuk/603974_comment.html'
p2034
aS'http://product.pconline.com.cn/mobile/goophone/511210_comment.html'
p2035
aS'http://product.pconline.com.cn/mobile/huawei/588447_comment.html'
p2036
aS'http://product.pconline.com.cn/mobile/hisense/561590_comment.html'
p2037
aS'http://product.pconline.com.cn/mobile/huawei/568076_comment.html'
p2038
aS'http://product.pconline.com.cn/mobile/hyundai/542559_comment.html'
p2039
aS'http://product.pconline.com.cn/mobile/sony/570876_comment.html'
p2040
aS'http://product.pconline.com.cn/mobile/philips/500609_comment.html'
p2041
aS'http://product.pconline.com.cn/mobile/acer/550932_comment.html'
p2042
aS'http://product.pconline.com.cn/mobile/lenovo/593477_comment.html'
p2043
aS'http://product.pconline.com.cn/mobile/doov/558070_comment.html'
p2044
aS'http://product.pconline.com.cn/mobile/amoi/546536_comment.html'
p2045
aS'http://product.pconline.com.cn/mobile/voto/560001_comment.html'
p2046
aS'http://product.pconline.com.cn/mobile/boway/592888_comment.html'
p2047
aS'http://product.pconline.com.cn/mobile/changhong/425465_comment.html'
p2048
aS'http://product.pconline.com.cn/mobile/lenovo/549057_comment.html'
p2049
aS'http://product.pconline.com.cn/mobile/lg/544621_comment.html'
p2050
aS'http://product.pconline.com.cn/mobile/huawei/594447_comment.html'
p2051
aS'http://product.pconline.com.cn/mobile/boway/552235_comment.html'
p2052
aS'http://product.pconline.com.cn/mobile/doov/551685_comment.html'
p2053
aS'http://product.pconline.com.cn/mobile/meitukiss/585995_comment.html'
p2054
aS'http://product.pconline.com.cn/mobile/lg/586017_comment.html'
p2055
aS'http://product.pconline.com.cn/mobile/coolpad/577520_comment.html'
p2056
aS'http://product.pconline.com.cn/mobile/doov/548358_comment.html'
p2057
aS'http://product.pconline.com.cn/mobile/lg/577724_comment.html'
p2058
aS'http://product.pconline.com.cn/mobile/blackberry/575392_comment.html'
p2059
aS'http://product.pconline.com.cn/mobile/miui/602285_comment.html'
p2060
aS'http://product.pconline.com.cn/mobile/tcl/591189_comment.html'
p2061
aS'http://product.pconline.com.cn/mobile/veaka/561620_comment.html'
p2062
aS'http://product.pconline.com.cn/mobile/tcl/522350_comment.html'
p2063
aS'http://product.pconline.com.cn/mobile/phicomm/576989_comment.html'
p2064
aS'http://product.pconline.com.cn/mobile/cmcc/593814_comment.html'
p2065
aS'http://product.pconline.com.cn/mobile/koobee/595690_comment.html'
p2066
aS'http://product.pconline.com.cn/mobile/yuntai/543064_comment.html'
p2067
aS'http://product.pconline.com.cn/mobile/xyz/541621_comment.html'
p2068
aS'http://product.pconline.com.cn/mobile/pantech/508882_comment.html'
p2069
aS'http://product.pconline.com.cn/mobile/lenovo/594477_comment.html'
p2070
aS'http://product.pconline.com.cn/mobile/apple/576909_comment.html'
p2071
aS'http://product.pconline.com.cn/mobile/hisense/573299_comment.html'
p2072
aS'http://product.pconline.com.cn/mobile/aux/540158_comment.html'
p2073
aS'http://product.pconline.com.cn/mobile/samsung/602804_comment.html'
p2074
aS'http://product.pconline.com.cn/mobile/beidou/546164_comment.html'
p2075
aS'http://product.pconline.com.cn/mobile/coolpad/608136_comment.html'
p2076
aS'http://product.pconline.com.cn/mobile/oppo/577804_comment.html'
p2077
aS'http://product.pconline.com.cn/mobile/nokia/551957_comment.html'
p2078
aS'http://product.pconline.com.cn/mobile/dec/385735_comment.html'
p2079
aS'http://product.pconline.com.cn/mobile/apple/600788_comment.html'
p2080
aS'http://product.pconline.com.cn/mobile/motorola/593384_comment.html'
p2081
aS'http://product.pconline.com.cn/mobile/zte/535345_comment.html'
p2082
aS'http://product.pconline.com.cn/mobile/htc/590632_comment.html'
p2083
aS'http://product.pconline.com.cn/mobile/bird/564725_comment.html'
p2084
aS'http://product.pconline.com.cn/mobile/samsung/551027_comment.html'
p2085
aS'http://product.pconline.com.cn/mobile/samsung/578669_comment.html'
p2086
aS'http://product.pconline.com.cn/mobile/hike/553146_comment.html'
p2087
aS'http://product.pconline.com.cn/mobile/koobee/579445_comment.html'
p2088
aS'http://product.pconline.com.cn/mobile/htc/585411_comment.html'
p2089
aS'http://product.pconline.com.cn/mobile/huawei/558069_comment.html'
p2090
aS'http://product.pconline.com.cn/mobile/smartisan/602337_comment.html'
p2091
aS'http://product.pconline.com.cn/mobile/nokia/543784_comment.html'
p2092
aS'http://product.pconline.com.cn/mobile/huawei/608140_comment.html'
p2093
aS'http://product.pconline.com.cn/mobile/htc/561886_comment.html'
p2094
aS'http://product.pconline.com.cn/mobile/gionee/580610_comment.html'
p2095
aS'http://product.pconline.com.cn/mobile/acer/600496_comment.html'
p2096
aS'http://product.pconline.com.cn/mobile/nokia/512756_comment.html'
p2097
aS'http://product.pconline.com.cn/mobile/boway/563947_comment.html'
p2098
aS'http://product.pconline.com.cn/mobile/bubugao/581311_comment.html'
p2099
aS'http://product.pconline.com.cn/mobile/samsung/562572_comment.html'
p2100
aS'http://product.pconline.com.cn/mobile/bubugao/608585_comment.html'
p2101
aS'http://product.pconline.com.cn/mobile/nubia/571930_comment.html'
p2102
aS'http://product.pconline.com.cn/mobile/apple/575830_comment.html'
p2103
aS'http://product.pconline.com.cn/mobile/coolpad/575023_comment.html'
p2104
aS'http://product.pconline.com.cn/mobile/honor/577136_comment.html'
p2105
aS'http://product.pconline.com.cn/mobile/nokia/569711_comment.html'
p2106
aS'http://product.pconline.com.cn/mobile/phicomm/568217_comment.html'
p2107
aS'http://product.pconline.com.cn/mobile/lefeng/533110_comment.html'
p2108
aS'http://product.pconline.com.cn/mobile/amoi/463216_comment.html'
p2109
aS'http://product.pconline.com.cn/mobile/k_touch/575271_comment.html'
p2110
aS'http://product.pconline.com.cn/mobile/zte/577320_comment.html'
p2111
aS'http://product.pconline.com.cn/mobile/dec/421866_comment.html'
p2112
aS'http://product.pconline.com.cn/mobile/htc/576959_comment.html'
p2113
aS'http://product.pconline.com.cn/mobile/lenovo/577459_comment.html'
p2114
aS'http://product.pconline.com.cn/mobile/huawei/602284_comment.html'
p2115
aS'http://product.pconline.com.cn/mobile/dec/532209_comment.html'
p2116
aS'http://product.pconline.com.cn/mobile/huawei/564967_comment.html'
p2117
aS'http://product.pconline.com.cn/mobile/asus/470335_comment.html'
p2118
aS'http://product.pconline.com.cn/mobile/samsung/554552_comment.html'
p2119
aS'http://product.pconline.com.cn/mobile/samsung/581178_comment.html'
p2120
aS'http://product.pconline.com.cn/mobile/sbyh/567056_comment.html'
p2121
aS'http://product.pconline.com.cn/mobile/gresso/503980_comment.html'
p2122
aS'http://product.pconline.com.cn/mobile/sony/540919_comment.html'
p2123
aS'http://product.pconline.com.cn/mobile/dec/398644_comment.html'
p2124
aS'http://product.pconline.com.cn/mobile/sonim/461319_comment.html'
p2125
aS'http://product.pconline.com.cn/mobile/iuni/573801_comment.html'
p2126
aS'http://product.pconline.com.cn/mobile/changhong/425392_comment.html'
p2127
aS'http://product.pconline.com.cn/mobile/boway/561726_comment.html'
p2128
aS'http://product.pconline.com.cn/mobile/changhong/509609_comment.html'
p2129
aS'http://product.pconline.com.cn/mobile/micro/578646_comment.html'
p2130
aS'http://product.pconline.com.cn/mobile/lenovo/590107_comment.html'
p2131
aS'http://product.pconline.com.cn/mobile/honor/598355_comment.html'
p2132
aS'http://product.pconline.com.cn/mobile/gionee/558296_comment.html'
p2133
aS'http://product.pconline.com.cn/mobile/sugar/549233_comment.html'
p2134
aS'http://product.pconline.com.cn/mobile/gionee/600310_comment.html'
p2135
aS'http://product.pconline.com.cn/mobile/zte/553580_comment.html'
p2136
aS'http://product.pconline.com.cn/mobile/thl/548006_comment.html'
p2137
aS'http://product.pconline.com.cn/mobile/nokia/566496_comment.html'
p2138
aS'http://product.pconline.com.cn/mobile/lenovo/580762_comment.html'
p2139
aS'http://product.pconline.com.cn/mobile/miui/587935_comment.html'
p2140
aS'http://product.pconline.com.cn/mobile/hasee/581172_comment.html'
p2141
aS'http://product.pconline.com.cn/mobile/dakele/563114_comment.html'
p2142
aS'http://product.pconline.com.cn/mobile/huawei/542473_comment.html'
p2143
aS'http://product.pconline.com.cn/mobile/oneplus/605531_comment.html'
p2144
aS'http://product.pconline.com.cn/mobile/samsung/602806_comment.html'
p2145
aS'http://product.pconline.com.cn/mobile/beidou/546166_comment.html'
p2146
aS'http://product.pconline.com.cn/mobile/bubugao/570610_comment.html'
p2147
aS'http://product.pconline.com.cn/mobile/1-call/545332_comment.html'
p2148
aS'http://product.pconline.com.cn/mobile/hyundai/492681_comment.html'
p2149
aS'http://product.pconline.com.cn/mobile/letv/600920_comment.html'
p2150
aS'http://product.pconline.com.cn/mobile/oppo/603789_comment.html'
p2151
aS'http://product.pconline.com.cn/mobile/alcatel/229356_comment.html'
p2152
aS'http://product.pconline.com.cn/mobile/samsung/576831_comment.html'
p2153
aS'http://product.pconline.com.cn/mobile/zte/548645_comment.html'
p2154
aS'http://product.pconline.com.cn/mobile/phicomm/568077_comment.html'
p2155
aS'http://product.pconline.com.cn/mobile/zte/603927_comment.html'
p2156
aS'http://product.pconline.com.cn/mobile/dec/501219_comment.html'
p2157
aS'http://product.pconline.com.cn/mobile/lg/529560_comment.html'
p2158
aS'http://product.pconline.com.cn/mobile/tcl/541605_comment.html'
p2159
aS'http://product.pconline.com.cn/mobile/philips/484860_comment.html'
p2160
aS'http://product.pconline.com.cn/mobile/doov/450864_comment.html'
p2161
aS'http://product.pconline.com.cn/mobile/oppo/581551_comment.html'
p2162
aS'http://product.pconline.com.cn/mobile/samsung/571356_comment.html'
p2163
aS'http://product.pconline.com.cn/mobile/htc/578257_comment.html'
p2164
aS'http://product.pconline.com.cn/mobile/voto/553986_comment.html'
p2165
aS'http://product.pconline.com.cn/mobile/boway/552042_comment.html'
p2166
aS'http://product.pconline.com.cn/mobile/dakele/563099_comment.html'
p2167
aS'http://product.pconline.com.cn/mobile/coolpad/577525_comment.html'
p2168
aS'http://product.pconline.com.cn/mobile/runbo/532634_comment.html'
p2169
aS'http://product.pconline.com.cn/mobile/jiayu/529546_comment.html'
p2170
aS'http://product.pconline.com.cn/mobile/ivvi/607352_comment.html'
p2171
aS'http://product.pconline.com.cn/mobile/coolpad/577092_comment.html'
p2172
aS'http://product.pconline.com.cn/mobile/samsung/600227_comment.html'
p2173
aS'http://product.pconline.com.cn/mobile/coolpad/577511_comment.html'
p2174
aS'http://product.pconline.com.cn/mobile/bubugao/544939_comment.html'
p2175
aS'http://product.pconline.com.cn/mobile/alcatel/561280_comment.html'
p2176
aS'http://product.pconline.com.cn/mobile/asus/537895_comment.html'
p2177
aS'http://product.pconline.com.cn/mobile/sonim/418104_comment.html'
p2178
aS'http://product.pconline.com.cn/mobile/lenovo/594473_comment.html'
p2179
aS'http://product.pconline.com.cn/mobile/voto/471897_comment.html'
p2180
aS'http://product.pconline.com.cn/mobile/samsung/576060_comment.html'
p2181
aS'http://product.pconline.com.cn/mobile/doov/416685_comment.html'
p2182
aS'http://product.pconline.com.cn/mobile/coolpad/580337_comment.html'
p2183
aS'http://product.pconline.com.cn/mobile/samsung/558492_comment.html'
p2184
aS'http://product.pconline.com.cn/mobile/neo/560502_comment.html'
p2185
aS'http://product.pconline.com.cn/mobile/vinus/522442_comment.html'
p2186
aS'http://product.pconline.com.cn/mobile/oneplus/597981_comment.html'
p2187
aS'http://product.pconline.com.cn/mobile/zte/605577_comment.html'
p2188
aS'http://product.pconline.com.cn/mobile/boway/552043_comment.html'
p2189
aS'http://product.pconline.com.cn/mobile/bubugao/584267_comment.html'
p2190
aS'http://product.pconline.com.cn/mobile/sony/578730_comment.html'
p2191
aS'http://product.pconline.com.cn/mobile/aux/540155_comment.html'
p2192
aS'http://product.pconline.com.cn/mobile/koobee/465435_comment.html'
p2193
aS'http://product.pconline.com.cn/mobile/sugar/599084_comment.html'
p2194
aS'http://product.pconline.com.cn/mobile/coolpad/577539_comment.html'
p2195
aS'http://product.pconline.com.cn/mobile/hosan/589896_comment.html'
p2196
aS'http://product.pconline.com.cn/mobile/lenovo/542868_comment.html'
p2197
aS'http://product.pconline.com.cn/mobile/zte/577426_comment.html'
p2198
aS'http://product.pconline.com.cn/mobile/shengda/546760_comment.html'
p2199
aS'http://product.pconline.com.cn/mobile/alcatel/477900_comment.html'
p2200
aS'http://product.pconline.com.cn/mobile/zte/571355_comment.html'
p2201
aS'http://product.pconline.com.cn/mobile/k_touch/554654_comment.html'
p2202
aS'http://product.pconline.com.cn/mobile/samsung/577022_comment.html'
p2203
aS'http://product.pconline.com.cn/mobile/iuni/588025_comment.html'
p2204
aS'http://product.pconline.com.cn/mobile/koobee/541094_comment.html'
p2205
aS'http://product.pconline.com.cn/mobile/oppo/544053_comment.html'
p2206
aS'http://product.pconline.com.cn/mobile/coolpad/550757_comment.html'
p2207
aS'http://product.pconline.com.cn/mobile/doov/555476_comment.html'
p2208
aS'http://product.pconline.com.cn/mobile/meizu/537735_comment.html'
p2209
aS'http://product.pconline.com.cn/mobile/oppo/547250_comment.html'
p2210
aS'http://product.pconline.com.cn/mobile/smartisan/604767_comment.html'
p2211
aS'http://product.pconline.com.cn/mobile/nokia/555408_comment.html'
p2212
aS'http://product.pconline.com.cn/mobile/xika/473055_comment.html'
p2213
aS'http://product.pconline.com.cn/mobile/oppo/595437_comment.html'
p2214
aS'http://product.pconline.com.cn/mobile/nokia/592896_comment.html'
p2215
aS'http://product.pconline.com.cn/mobile/boway/577635_comment.html'
p2216
aS'http://product.pconline.com.cn/mobile/philips/553325_comment.html'
p2217
aS'http://product.pconline.com.cn/mobile/meizu/542604_comment.html'
p2218
aS'http://product.pconline.com.cn/mobile/apple/601274_comment.html'
p2219
aS'http://product.pconline.com.cn/mobile/sharp/408038_comment.html'
p2220
aS'http://product.pconline.com.cn/mobile/coolpad/535201_comment.html'
p2221
aS'http://product.pconline.com.cn/mobile/hasee/560647_comment.html'
p2222
aS'http://product.pconline.com.cn/mobile/runbo/604884_comment.html'
p2223
aS'http://product.pconline.com.cn/mobile/thl/544019_comment.html'
p2224
aS'http://product.pconline.com.cn/mobile/k_touch/575270_comment.html'
p2225
aS'http://product.pconline.com.cn/mobile/samsung/599170_comment.html'
p2226
aS'http://product.pconline.com.cn/mobile/honor/573591_comment.html'
p2227
aS'http://product.pconline.com.cn/mobile/bird/566232_comment.html'
p2228
aS'http://product.pconline.com.cn/mobile/lg/595462_comment.html'
p2229
aS'http://product.pconline.com.cn/mobile/voto/483647_comment.html'
p2230
aS'http://product.pconline.com.cn/mobile/huawei/608762_comment.html'
p2231
aS'http://product.pconline.com.cn/mobile/huawei/532435_comment.html'
p2232
aS'http://product.pconline.com.cn/mobile/honor/571243_comment.html'
p2233
aS'http://product.pconline.com.cn/mobile/apple/561883_comment.html'
p2234
aS'http://product.pconline.com.cn/mobile/oppo/522914_comment.html'
p2235
aS'http://product.pconline.com.cn/mobile/huadoo/593210_comment.html'
p2236
aS'http://product.pconline.com.cn/mobile/doov/555234_comment.html'
p2237
aS'http://product.pconline.com.cn/mobile/gionee/550689_comment.html'
p2238
aS'http://product.pconline.com.cn/mobile/sharp/596313_comment.html'
p2239
aS'http://product.pconline.com.cn/mobile/lenovo/577498_comment.html'
p2240
aS'http://product.pconline.com.cn/mobile/philips/449908_comment.html'
p2241
aS'http://product.pconline.com.cn/mobile/apple/525877_comment.html'
p2242
aS'http://product.pconline.com.cn/mobile/htc/576952_comment.html'
p2243
aS'http://product.pconline.com.cn/mobile/huawei/546825_comment.html'
p2244
aS'http://product.pconline.com.cn/mobile/acer/600752_comment.html'
p2245
aS'http://product.pconline.com.cn/mobile/gionee/600234_comment.html'
p2246
aS'http://product.pconline.com.cn/mobile/lg/562908_comment.html'
p2247
aS'http://product.pconline.com.cn/mobile/mk/528926_comment.html'
p2248
aS'http://product.pconline.com.cn/mobile/alcatel/182106_comment.html'
p2249
aS'http://product.pconline.com.cn/mobile/koobee/465432_comment.html'
p2250
aS'http://product.pconline.com.cn/mobile/zte/577373_comment.html'
p2251
aS'http://product.pconline.com.cn/mobile/tcl/581234_comment.html'
p2252
aS'http://product.pconline.com.cn/mobile/lenovo/595687_comment.html'
p2253
aS'http://product.pconline.com.cn/mobile/newman/528491_comment.html'
p2254
aS'http://product.pconline.com.cn/mobile/huawei/564968_comment.html'
p2255
aS'http://product.pconline.com.cn/mobile/tcl/603935_comment.html'
p2256
aS'http://product.pconline.com.cn/mobile/zte/602207_comment.html'
p2257
aS'http://product.pconline.com.cn/mobile/lenovo/580288_comment.html'
p2258
aS'http://product.pconline.com.cn/mobile/gionee/575303_comment.html'
p2259
aS'http://product.pconline.com.cn/mobile/zte/581450_comment.html'
p2260
aS'http://product.pconline.com.cn/mobile/voto/445519_comment.html'
p2261
aS'http://product.pconline.com.cn/mobile/neo/540230_comment.html'
p2262
aS'http://product.pconline.com.cn/mobile/lg/601750_comment.html'
p2263
aS'http://product.pconline.com.cn/mobile/ivvi/600869_comment.html'
p2264
aS'http://product.pconline.com.cn/mobile/coolpad/577527_comment.html'
p2265
aS'http://product.pconline.com.cn/mobile/kxd/547703_comment.html'
p2266
aS'http://product.pconline.com.cn/mobile/sharp/419939_comment.html'
p2267
aS'http://product.pconline.com.cn/mobile/sharp/469326_comment.html'
p2268
aS'http://product.pconline.com.cn/mobile/miui/570840_comment.html'
p2269
aS'http://product.pconline.com.cn/mobile/gionee/555482_comment.html'
p2270
aS'http://product.pconline.com.cn/mobile/xbw/527490_comment.html'
p2271
aS'http://product.pconline.com.cn/mobile/voto/455291_comment.html'
p2272
aS'http://product.pconline.com.cn/mobile/pantech/554674_comment.html'
p2273
aS'http://product.pconline.com.cn/mobile/oppo/588739_comment.html'
p2274
aS'http://product.pconline.com.cn/mobile/lenovo/556060_comment.html'
p2275
aS'http://product.pconline.com.cn/mobile/amoi/548181_comment.html'
p2276
aS'http://product.pconline.com.cn/mobile/phicomm/568078_comment.html'
p2277
aS'http://product.pconline.com.cn/mobile/aux/542164_comment.html'
p2278
aS'http://product.pconline.com.cn/mobile/huawei/589327_comment.html'
p2279
aS'http://product.pconline.com.cn/mobile/ivvi/607374_comment.html'
p2280
aS'http://product.pconline.com.cn/mobile/samsung/571409_comment.html'
p2281
aS'http://product.pconline.com.cn/mobile/oppo/608595_comment.html'
p2282
aS'http://product.pconline.com.cn/mobile/miui/604977_comment.html'
p2283
aS'http://product.pconline.com.cn/mobile/oppo/580814_comment.html'
p2284
aS'http://product.pconline.com.cn/mobile/meizu/575335_comment.html'
p2285
aS'http://product.pconline.com.cn/mobile/miui/602323_comment.html'
p2286
aS'http://product.pconline.com.cn/mobile/letv/605401_comment.html'
p2287
aS'http://product.pconline.com.cn/mobile/huawei/585836_comment.html'
p2288
aS'http://product.pconline.com.cn/mobile/nokia/484467_comment.html'
p2289
aS'http://product.pconline.com.cn/mobile/htc/582282_comment.html'
p2290
aS'http://product.pconline.com.cn/mobile/philips/513193_comment.html'
p2291
aS'http://product.pconline.com.cn/mobile/coolpad/557602_comment.html'
p2292
aS'http://product.pconline.com.cn/mobile/asus/555166_comment.html'
p2293
aS'http://product.pconline.com.cn/mobile/coolpad/548493_comment.html'
p2294
aS'http://product.pconline.com.cn/mobile/samsung/577193_comment.html'
p2295
aS'http://product.pconline.com.cn/mobile/tcl/556426_comment.html'
p2296
aS'http://product.pconline.com.cn/mobile/nokia/548486_comment.html'
p2297
aS'http://product.pconline.com.cn/mobile/coolpad/549433_comment.html'
p2298
aS'http://product.pconline.com.cn/mobile/coolpad/580025_comment.html'
p2299
aS'http://product.pconline.com.cn/mobile/zte/577414_comment.html'
p2300
aS'http://product.pconline.com.cn/mobile/zte/577425_comment.html'
p2301
aS'http://product.pconline.com.cn/mobile/hasee/576607_comment.html'
p2302
aS'http://product.pconline.com.cn/mobile/apple/575847_comment.html'
p2303
aS'http://product.pconline.com.cn/mobile/coolpad/570413_comment.html'
p2304
aS'http://product.pconline.com.cn/mobile/newman/539884_comment.html'
p2305
aS'http://product.pconline.com.cn/mobile/goophone/518356_comment.html'
p2306
aS'http://product.pconline.com.cn/mobile/hy/544670_comment.html'
p2307
aS'http://product.pconline.com.cn/mobile/lg/524185_comment.html'
p2308
aS'http://product.pconline.com.cn/mobile/motorola/600407_comment.html'
p2309
aS'http://product.pconline.com.cn/mobile/meizu/545708_comment.html'
p2310
aS'http://product.pconline.com.cn/mobile/philips/412658_comment.html'
p2311
aS'http://product.pconline.com.cn/mobile/pantech/510212_comment.html'
p2312
aS'http://product.pconline.com.cn/mobile/motorola/601781_comment.html'
p2313
aS'http://product.pconline.com.cn/mobile/alcatel/513710_comment.html'
p2314
aS'http://product.pconline.com.cn/mobile/nokia/479434_comment.html'
p2315
aS'http://product.pconline.com.cn/mobile/doov/534056_comment.html'
p2316
aS'http://product.pconline.com.cn/mobile/tcl/572676_comment.html'
p2317
aS'http://product.pconline.com.cn/mobile/miui/584150_comment.html'
p2318
aS'http://product.pconline.com.cn/mobile/htc/587789_comment.html'
p2319
aS'http://product.pconline.com.cn/mobile/zte/545782_comment.html'
p2320
aS'http://product.pconline.com.cn/mobile/bubugao/594090_comment.html'
p2321
aS'http://product.pconline.com.cn/mobile/viewsonic/575911_comment.html'
p2322
aS'http://product.pconline.com.cn/mobile/bubugao/548665_comment.html'
p2323
aS'http://product.pconline.com.cn/mobile/philips/596761_comment.html'
p2324
aS'http://product.pconline.com.cn/mobile/coolpad/547484_comment.html'
p2325
aS'http://product.pconline.com.cn/mobile/coolpad/577533_comment.html'
p2326
aS'http://product.pconline.com.cn/mobile/samsung/572120_comment.html'
p2327
aS'http://product.pconline.com.cn/mobile/philips/445881_comment.html'
p2328
aS'http://product.pconline.com.cn/mobile/htc/576953_comment.html'
p2329
aS'http://product.pconline.com.cn/mobile/gionee/604167_comment.html'
p2330
aS'http://product.pconline.com.cn/mobile/gionee/568446_comment.html'
p2331
aS'http://product.pconline.com.cn/mobile/neo/540228_comment.html'
p2332
aS'http://product.pconline.com.cn/mobile/nokia/563494_comment.html'
p2333
aS'http://product.pconline.com.cn/mobile/amoi/552494_comment.html'
p2334
aS'http://product.pconline.com.cn/mobile/bubugao/602593_comment.html'
p2335
aS'http://product.pconline.com.cn/mobile/nokia/548221_comment.html'
p2336
aS'http://product.pconline.com.cn/mobile/huawei/577585_comment.html'
p2337
aS'http://product.pconline.com.cn/mobile/k_touch/550752_comment.html'
p2338
aS'http://product.pconline.com.cn/mobile/acer/581301_comment.html'
p2339
aS'http://product.pconline.com.cn/mobile/thl/545968_comment.html'
p2340
aS'http://product.pconline.com.cn/mobile/zte/537745_comment.html'
p2341
aS'http://product.pconline.com.cn/mobile/lg/517355_comment.html'
p2342
aS'http://product.pconline.com.cn/mobile/amoi/549765_comment.html'
p2343
aS'http://product.pconline.com.cn/mobile/coolpad/580445_comment.html'
p2344
aS'http://product.pconline.com.cn/mobile/zte/592897_comment.html'
p2345
aS'http://product.pconline.com.cn/mobile/tcl/592008_comment.html'
p2346
aS'http://product.pconline.com.cn/mobile/samsung/581687_comment.html'
p2347
aS'http://product.pconline.com.cn/mobile/zte/577304_comment.html'
p2348
aS'http://product.pconline.com.cn/mobile/coolpad/578412_comment.html'
p2349
aS'http://product.pconline.com.cn/mobile/conquest/597612_comment.html'
p2350
aS'http://product.pconline.com.cn/mobile/amoi/566016_comment.html'
p2351
aS'http://product.pconline.com.cn/mobile/amoi/463196_comment.html'
p2352
aS'http://product.pconline.com.cn/mobile/boway/595881_comment.html'
p2353
aS'http://product.pconline.com.cn/mobile/samsung/571561_comment.html'
p2354
aS'http://product.pconline.com.cn/mobile/zte/538732_comment.html'
p2355
aS'http://product.pconline.com.cn/mobile/zte/577434_comment.html'
p2356
aS'http://product.pconline.com.cn/mobile/motorola/603012_comment.html'
p2357
aS'http://product.pconline.com.cn/mobile/apple/575351_comment.html'
p2358
aS'http://product.pconline.com.cn/mobile/infocus/571616_comment.html'
p2359
aS'http://product.pconline.com.cn/mobile/infocus/574546_comment.html'
p2360
aS'http://product.pconline.com.cn/mobile/nokia/566495_comment.html'
p2361
aS'http://product.pconline.com.cn/mobile/neo/540224_comment.html'
p2362
aS'http://product.pconline.com.cn/mobile/lg/577720_comment.html'
p2363
aS'http://product.pconline.com.cn/mobile/nokia/563502_comment.html'
p2364
aS'http://product.pconline.com.cn/mobile/sonim/481388_comment.html'
p2365
aS'http://product.pconline.com.cn/mobile/tcl/591863_comment.html'
p2366
aS'http://product.pconline.com.cn/mobile/bird/560206_comment.html'
p2367
aS'http://product.pconline.com.cn/mobile/samsung/604666_comment.html'
p2368
aS'http://product.pconline.com.cn/mobile/beidou/560068_comment.html'
p2369
aS'http://product.pconline.com.cn/mobile/samsung/603790_comment.html'
p2370
aS'http://product.pconline.com.cn/mobile/samsung/572678_comment.html'
p2371
aS'http://product.pconline.com.cn/mobile/sugar/549239_comment.html'
p2372
aS'http://product.pconline.com.cn/mobile/nec/497443_comment.html'
p2373
aS'http://product.pconline.com.cn/mobile/htc/583289_comment.html'
p2374
aS'http://product.pconline.com.cn/mobile/bubugao/588632_comment.html'
p2375
aS'http://product.pconline.com.cn/mobile/zte/536714_comment.html'
p2376
aS'http://product.pconline.com.cn/mobile/doov/548319_comment.html'
p2377
aS'http://product.pconline.com.cn/mobile/bubugao/593060_comment.html'
p2378
aS'http://product.pconline.com.cn/mobile/honor/522308_comment.html'
p2379
aS'http://product.pconline.com.cn/mobile/huawei/575538_comment.html'
p2380
aS'http://product.pconline.com.cn/mobile/gionee/555487_comment.html'
p2381
aS'http://product.pconline.com.cn/mobile/lenovo/577499_comment.html'
p2382
aS'http://product.pconline.com.cn/mobile/changhong/425397_comment.html'
p2383
aS'http://product.pconline.com.cn/mobile/asus/587141_comment.html'
p2384
aS'http://product.pconline.com.cn/mobile/oppo/510850_comment.html'
p2385
aS'http://product.pconline.com.cn/mobile/samsung/604880_comment.html'
p2386
aS'http://product.pconline.com.cn/mobile/apple/568697_comment.html'
p2387
aS'http://product.pconline.com.cn/mobile/koobee/507947_comment.html'
p2388
aS'http://product.pconline.com.cn/mobile/nuu/560303_comment.html'
p2389
aS'http://product.pconline.com.cn/mobile/koobee/606243_comment.html'
p2390
aS'http://product.pconline.com.cn/mobile/alcatel/581363_comment.html'
p2391
aS'http://product.pconline.com.cn/mobile/philips/445493_comment.html'
p2392
aS'http://product.pconline.com.cn/mobile/letv/600921_comment.html'
p2393
aS'http://product.pconline.com.cn/mobile/philips/571293_comment.html'
p2394
aS'http://product.pconline.com.cn/mobile/tcl/547875_comment.html'
p2395
aS'http://product.pconline.com.cn/mobile/miui/602324_comment.html'
p2396
aS'http://product.pconline.com.cn/mobile/htc/605375_comment.html'
p2397
aS'http://product.pconline.com.cn/mobile/hasee/560643_comment.html'
p2398
aS'http://product.pconline.com.cn/mobile/koobee/465535_comment.html'
p2399
aS'http://product.pconline.com.cn/mobile/miui/602411_comment.html'
p2400
aS'http://product.pconline.com.cn/mobile/hisense/578254_comment.html'
p2401
aS'http://product.pconline.com.cn/mobile/vargo/594621_comment.html'
p2402
aS'http://product.pconline.com.cn/mobile/apple/553286_comment.html'
p2403
aS'http://product.pconline.com.cn/mobile/doov/548321_comment.html'
p2404
aS'http://product.pconline.com.cn/mobile/samsung/589049_comment.html'
p2405
aS'http://product.pconline.com.cn/mobile/oppo/586013_comment.html'
p2406
aS'http://product.pconline.com.cn/mobile/oneplus/565537_comment.html'
p2407
aS'http://product.pconline.com.cn/mobile/gionee/558295_comment.html'
p2408
aS'http://product.pconline.com.cn/mobile/philips/468513_comment.html'
p2409
aS'http://product.pconline.com.cn/mobile/koobee/521900_comment.html'
p2410
aS'http://product.pconline.com.cn/mobile/huawei/542567_comment.html'
p2411
aS'http://product.pconline.com.cn/mobile/miui/602336_comment.html'
p2412
aS'http://product.pconline.com.cn/mobile/ramos/595732_comment.html'
p2413
aS'http://product.pconline.com.cn/mobile/vinus/522444_comment.html'
p2414
aS'http://product.pconline.com.cn/mobile/ws/532587_comment.html'
p2415
aS'http://product.pconline.com.cn/mobile/tcl/573751_comment.html'
p2416
aS'http://product.pconline.com.cn/mobile/philips/564290_comment.html'
p2417
aS'http://product.pconline.com.cn/mobile/yuntai/513041_comment.html'
p2418
aS'http://product.pconline.com.cn/mobile/samsung/551607_comment.html'
p2419
aS'http://product.pconline.com.cn/mobile/changhong/507179_comment.html'
p2420
aS'http://product.pconline.com.cn/mobile/huawei/550945_comment.html'
p2421
aS'http://product.pconline.com.cn/mobile/pioneer/571605_comment.html'
p2422
aS'http://product.pconline.com.cn/mobile/honor/599296_comment.html'
p2423
aS'http://product.pconline.com.cn/mobile/coolpad/608068_comment.html'
p2424
aS'http://product.pconline.com.cn/mobile/huawei/596610_comment.html'
p2425
aS'http://product.pconline.com.cn/mobile/doov/537019_comment.html'
p2426
aS'http://product.pconline.com.cn/mobile/fdt/548711_comment.html'
p2427
aS'http://product.pconline.com.cn/mobile/oppo/522673_comment.html'
p2428
aS'http://product.pconline.com.cn/mobile/zte/577346_comment.html'
p2429
aS'http://product.pconline.com.cn/mobile/lenovo/577468_comment.html'
p2430
aS'http://product.pconline.com.cn/mobile/tcl/565940_comment.html'
p2431
aS'http://product.pconline.com.cn/mobile/pantech/530314_comment.html'
p2432
aS'http://product.pconline.com.cn/mobile/motorola/594950_comment.html'
p2433
aS'http://product.pconline.com.cn/mobile/huadoo/604068_comment.html'
p2434
aS'http://product.pconline.com.cn/mobile/oppo/569485_comment.html'
p2435
aS'http://product.pconline.com.cn/mobile/zte/577306_comment.html'
p2436
aS'http://product.pconline.com.cn/mobile/letv/587796_comment.html'
p2437
aS'http://product.pconline.com.cn/mobile/samsung/570912_comment.html'
p2438
aS'http://product.pconline.com.cn/mobile/philips/541569_comment.html'
p2439
aS'http://product.pconline.com.cn/mobile/tcl/586627_comment.html'
p2440
aS'http://product.pconline.com.cn/mobile/vinus/524361_comment.html'
p2441
aS'http://product.pconline.com.cn/mobile/gionee/577506_comment.html'
p2442
aS'http://product.pconline.com.cn/mobile/sharp/408041_comment.html'
p2443
aS'http://product.pconline.com.cn/mobile/samsung/577182_comment.html'
p2444
aS'http://product.pconline.com.cn/mobile/thl/559207_comment.html'
p2445
aS'http://product.pconline.com.cn/mobile/coolpad/543595_comment.html'
p2446
aS'http://product.pconline.com.cn/mobile/lenovo/587250_comment.html'
p2447
aS'http://product.pconline.com.cn/mobile/gionee/552312_comment.html'
p2448
aS'http://product.pconline.com.cn/mobile/tcl/607787_comment.html'
p2449
aS'http://product.pconline.com.cn/mobile/sony/560279_comment.html'
p2450
aS'http://product.pconline.com.cn/mobile/coolpad/605132_comment.html'
p2451
aS'http://product.pconline.com.cn/mobile/zhenai/511677_comment.html'
p2452
aS'http://product.pconline.com.cn/mobile/philips/449905_comment.html'
p2453
aS'http://product.pconline.com.cn/mobile/ghong/545591_comment.html'
p2454
aS'http://product.pconline.com.cn/mobile/meitukiss/557704_comment.html'
p2455
aS'http://product.pconline.com.cn/mobile/coolpad/563678_comment.html'
p2456
aS'http://product.pconline.com.cn/mobile/nokia/173428_comment.html'
p2457
aS'http://product.pconline.com.cn/mobile/smartisan/585998_comment.html'
p2458
aS'http://product.pconline.com.cn/mobile/coolpad/579800_comment.html'
p2459
aS'http://product.pconline.com.cn/mobile/lenovo/579514_comment.html'
p2460
aS'http://product.pconline.com.cn/mobile/tcl/557536_comment.html'
p2461
aS'http://product.pconline.com.cn/mobile/samsung/567970_comment.html'
p2462
aS'http://product.pconline.com.cn/mobile/meizu/580882_comment.html'
p2463
aS'http://product.pconline.com.cn/mobile/samsung/565039_comment.html'
p2464
aS'http://product.pconline.com.cn/mobile/huawei/577079_comment.html'
p2465
aS'http://product.pconline.com.cn/mobile/amoi/561581_comment.html'
p2466
aS'http://product.pconline.com.cn/mobile/21ke/572378_comment.html'
p2467
aS'http://product.pconline.com.cn/mobile/koobee/489353_comment.html'
p2468
aS'http://product.pconline.com.cn/mobile/samsung/569097_comment.html'
p2469
aS'http://product.pconline.com.cn/mobile/huawei/603633_comment.html'
p2470
aS'http://product.pconline.com.cn/mobile/lg/528212_comment.html'
p2471
aS'http://product.pconline.com.cn/mobile/nubia/590792_comment.html'
p2472
aS'http://product.pconline.com.cn/mobile/zhuopu/542027_comment.html'
p2473
aS'http://product.pconline.com.cn/mobile/zte/577361_comment.html'
p2474
aS'http://product.pconline.com.cn/mobile/gfive/556411_comment.html'
p2475
aS'http://product.pconline.com.cn/mobile/samsung/549200_comment.html'
p2476
aS'http://product.pconline.com.cn/mobile/lenovo/585848_comment.html'
p2477
aS'http://product.pconline.com.cn/mobile/doov/528250_comment.html'
p2478
aS'http://product.pconline.com.cn/mobile/lenovo/577063_comment.html'
p2479
aS'http://product.pconline.com.cn/mobile/phicomm/567771_comment.html'
p2480
aS'http://product.pconline.com.cn/mobile/meizu/591349_comment.html'
p2481
aS'http://product.pconline.com.cn/mobile/broadsee/570466_comment.html'
p2482
aS'http://product.pconline.com.cn/mobile/coolpad/569407_comment.html'
p2483
aS'http://product.pconline.com.cn/mobile/changhong/507226_comment.html'
p2484
aS'http://product.pconline.com.cn/mobile/nokia/554034_comment.html'
p2485
aS'http://product.pconline.com.cn/mobile/pantech/551095_comment.html'
p2486
aS'http://product.pconline.com.cn/mobile/nokia/543789_comment.html'
p2487
aS'http://product.pconline.com.cn/mobile/htc/576957_comment.html'
p2488
aS'http://product.pconline.com.cn/mobile/meizu/527305_comment.html'
p2489
aS'http://product.pconline.com.cn/mobile/huawei/577068_comment.html'
p2490
aS'http://product.pconline.com.cn/mobile/hisense/543184_comment.html'
p2491
aS'http://product.pconline.com.cn/mobile/kxd/547700_comment.html'
p2492
aS'http://product.pconline.com.cn/mobile/sbyh/565082_comment.html'
p2493
aS'http://product.pconline.com.cn/mobile/phicomm/567973_comment.html'
p2494
aS'http://product.pconline.com.cn/mobile/meizu/567325_comment.html'
p2495
aS'http://product.pconline.com.cn/mobile/amoi/548188_comment.html'
p2496
aS'http://product.pconline.com.cn/mobile/coolpad/577535_comment.html'
p2497
aS'http://product.pconline.com.cn/mobile/apple/553291_comment.html'
p2498
aS'http://product.pconline.com.cn/mobile/nokia/548225_comment.html'
p2499
aS'http://product.pconline.com.cn/mobile/lg/569272_comment.html'
p2500
aS'http://product.pconline.com.cn/mobile/nubia/544777_comment.html'
p2501
aS'http://product.pconline.com.cn/mobile/yx/545939_comment.html'
p2502
aS'http://product.pconline.com.cn/mobile/philips/559501_comment.html'
p2503
aS'http://product.pconline.com.cn/mobile/nokia/554551_comment.html'
p2504
aS'http://product.pconline.com.cn/mobile/htc/562257_comment.html'
p2505
aS'http://product.pconline.com.cn/mobile/changhong/425409_comment.html'
p2506
aS'http://product.pconline.com.cn/mobile/samsung/588328_comment.html'
p2507
aS'http://product.pconline.com.cn/mobile/sharp/343366_comment.html'
p2508
aS'http://product.pconline.com.cn/mobile/coship/565795_comment.html'
p2509
aS'http://product.pconline.com.cn/mobile/blackberry/580430_comment.html'
p2510
aS'http://product.pconline.com.cn/mobile/philips/504013_comment.html'
p2511
aS'http://product.pconline.com.cn/mobile/htc/606547_comment.html'
p2512
aS'http://product.pconline.com.cn/mobile/koobee/532969_comment.html'
p2513
aS'http://product.pconline.com.cn/mobile/doov/537678_comment.html'
p2514
aS'http://product.pconline.com.cn/mobile/mk/530436_comment.html'
p2515
aS'http://product.pconline.com.cn/mobile/htc/541162_comment.html'
p2516
aS'http://product.pconline.com.cn/mobile/zhuopu/562966_comment.html'
p2517
aS'http://product.pconline.com.cn/mobile/nokia/531674_comment.html'
p2518
aS'http://product.pconline.com.cn/mobile/lg/587255_comment.html'
p2519
aS'http://product.pconline.com.cn/mobile/aoro/580862_comment.html'
p2520
aS'http://product.pconline.com.cn/mobile/beidou/604161_comment.html'
p2521
aS'http://product.pconline.com.cn/mobile/meizu/579363_comment.html'
p2522
aS'http://product.pconline.com.cn/mobile/samsung/586234_comment.html'
p2523
aS'http://product.pconline.com.cn/mobile/doov/558072_comment.html'
p2524
aS'http://product.pconline.com.cn/mobile/lenovo/577467_comment.html'
p2525
aS'http://product.pconline.com.cn/mobile/micro/608000_comment.html'
p2526
aS'http://product.pconline.com.cn/mobile/zte/536710_comment.html'
p2527
aS'http://product.pconline.com.cn/mobile/sugar/606028_comment.html'
p2528
aS'http://product.pconline.com.cn/mobile/tcl/554783_comment.html'
p2529
aS'http://product.pconline.com.cn/mobile/tcl/535064_comment.html'
p2530
aS'http://product.pconline.com.cn/mobile/hasee/574909_comment.html'
p2531
aS'http://product.pconline.com.cn/mobile/coolpad/597989_comment.html'
p2532
aS'http://product.pconline.com.cn/mobile/huawei/566743_comment.html'
p2533
aS'http://product.pconline.com.cn/mobile/htc/589988_comment.html'
p2534
aS'http://product.pconline.com.cn/mobile/samsung/578406_comment.html'
p2535
aS'http://product.pconline.com.cn/mobile/nubia/604661_comment.html'
p2536
aS'http://product.pconline.com.cn/mobile/coolpad/538182_comment.html'
p2537
aS'http://product.pconline.com.cn/mobile/zte/608007_comment.html'
p2538
aS'http://product.pconline.com.cn/mobile/lt/549819_comment.html'
p2539
aS'http://product.pconline.com.cn/mobile/sony/549196_comment.html'
p2540
aS'http://product.pconline.com.cn/mobile/htc/541709_comment.html'
p2541
aS'http://product.pconline.com.cn/mobile/samsung/540613_comment.html'
p2542
aS'http://product.pconline.com.cn/mobile/nec/460818_comment.html'
p2543
aS'http://product.pconline.com.cn/mobile/zte/588570_comment.html'
p2544
aS'http://product.pconline.com.cn/mobile/boway/552286_comment.html'
p2545
aS'http://product.pconline.com.cn/mobile/pomp/569196_comment.html'
p2546
aS'http://product.pconline.com.cn/mobile/wanlida/527795_comment.html'
p2547
aS'http://product.pconline.com.cn/mobile/jiayu/534802_comment.html'
p2548
aS'http://product.pconline.com.cn/mobile/koobee/575241_comment.html'
p2549
aS'http://product.pconline.com.cn/mobile/voto/509557_comment.html'
p2550
aS'http://product.pconline.com.cn/mobile/lenovo/577463_comment.html'
p2551
aS'http://product.pconline.com.cn/mobile/nokia/558204_comment.html'
p2552
aS'http://product.pconline.com.cn/mobile/boway/552038_comment.html'
p2553
aS'http://product.pconline.com.cn/mobile/philips/580876_comment.html'
p2554
aS'http://product.pconline.com.cn/mobile/lenovo/569106_comment.html'
p2555
aS'http://product.pconline.com.cn/mobile/boway/552287_comment.html'
p2556
aS'http://product.pconline.com.cn/mobile/nokia/527158_comment.html'
p2557
aS'http://product.pconline.com.cn/mobile/bluesky/509097_comment.html'
p2558
aS'http://product.pconline.com.cn/mobile/gionee/561909_comment.html'
p2559
aS'http://product.pconline.com.cn/mobile/coolpad/593468_comment.html'
p2560
aS'http://product.pconline.com.cn/mobile/nokia/477718_comment.html'
p2561
aS'http://product.pconline.com.cn/mobile/beidou/605834_comment.html'
p2562
aS'http://product.pconline.com.cn/mobile/philips/528146_comment.html'
p2563
aS'http://product.pconline.com.cn/mobile/meizu/575336_comment.html'
p2564
aS'http://product.pconline.com.cn/mobile/phicomm/576984_comment.html'
p2565
aS'http://product.pconline.com.cn/mobile/alcatel/455904_comment.html'
p2566
aS'http://product.pconline.com.cn/mobile/bubugao/550588_comment.html'
p2567
aS'http://product.pconline.com.cn/mobile/koobee/591969_comment.html'
p2568
aS'http://product.pconline.com.cn/mobile/asus/567158_comment.html'
p2569
aS'http://product.pconline.com.cn/mobile/zte/547540_comment.html'
p2570
aS'http://product.pconline.com.cn/mobile/coolpad/577521_comment.html'
p2571
aS'http://product.pconline.com.cn/mobile/alcatel/513451_comment.html'
p2572
aS'http://product.pconline.com.cn/mobile/coolpad/573193_comment.html'
p2573
aS'http://product.pconline.com.cn/mobile/samsung/588807_comment.html'
p2574
aS'http://product.pconline.com.cn/mobile/k_touch/564803_comment.html'
p2575
aS'http://product.pconline.com.cn/mobile/honor/575836_comment.html'
p2576
aS'http://product.pconline.com.cn/mobile/gionee/600233_comment.html'
p2577
aS'http://product.pconline.com.cn/mobile/xyz/553147_comment.html'
p2578
aS'http://product.pconline.com.cn/mobile/sony/574669_comment.html'
p2579
aS'http://product.pconline.com.cn/mobile/voto/471904_comment.html'
p2580
aS'http://product.pconline.com.cn/mobile/coolpad/560658_comment.html'
p2581
aS'http://product.pconline.com.cn/mobile/yuandian/589460_comment.html'
p2582
aS'http://product.pconline.com.cn/mobile/coolpad/559493_comment.html'
p2583
aS'http://product.pconline.com.cn/mobile/zte/597192_comment.html'
p2584
aS'http://product.pconline.com.cn/mobile/samsung/537330_comment.html'
p2585
aS'http://product.pconline.com.cn/mobile/wm/570569_comment.html'
p2586
aS'http://product.pconline.com.cn/mobile/zte/589335_comment.html'
p2587
aS'http://product.pconline.com.cn/mobile/sony/543767_comment.html'
p2588
aS'http://product.pconline.com.cn/mobile/tcl/522376_comment.html'
p2589
aS'http://product.pconline.com.cn/mobile/oneplus/597980_comment.html'
p2590
aS'http://product.pconline.com.cn/mobile/huawei/544702_comment.html'
p2591
aS'http://product.pconline.com.cn/mobile/amoi/548186_comment.html'
p2592
aS'http://product.pconline.com.cn/mobile/meizu/546464_comment.html'
p2593
aS'http://product.pconline.com.cn/mobile/apple/606049_comment.html'
p2594
aS'http://product.pconline.com.cn/mobile/apple/575826_comment.html'
p2595
aS'http://product.pconline.com.cn/mobile/lg/527515_comment.html'
p2596
aS'http://product.pconline.com.cn/mobile/gionee/568452_comment.html'
p2597
aS'http://product.pconline.com.cn/mobile/sharp/421352_comment.html'
p2598
aS'http://product.pconline.com.cn/mobile/lenovo/593383_comment.html'
p2599
aS'http://product.pconline.com.cn/mobile/honor/557535_comment.html'
p2600
aS'http://product.pconline.com.cn/mobile/coolpad/580495_comment.html'
p2601
aS'http://product.pconline.com.cn/mobile/nubia/592707_comment.html'
p2602
aS'http://product.pconline.com.cn/mobile/htc/562820_comment.html'
p2603
aS'http://product.pconline.com.cn/mobile/lefeng/551492_comment.html'
p2604
aS'http://product.pconline.com.cn/mobile/htc/573388_comment.html'
p2605
aS'http://product.pconline.com.cn/mobile/zte/562073_comment.html'
p2606
aS'http://product.pconline.com.cn/mobile/pioneer/566930_comment.html'
p2607
aS'http://product.pconline.com.cn/mobile/lenovo/581421_comment.html'
p2608
aS'http://product.pconline.com.cn/mobile/samsung/586087_comment.html'
p2609
aS'http://product.pconline.com.cn/mobile/tcl/608770_comment.html'
p2610
aS'http://product.pconline.com.cn/mobile/bubugao/551855_comment.html'
p2611
aS'http://product.pconline.com.cn/mobile/coolpad/546903_comment.html'
p2612
aS'http://product.pconline.com.cn/mobile/sony/528334_comment.html'
p2613
aS'http://product.pconline.com.cn/mobile/tcl/578774_comment.html'
p2614
aS'http://product.pconline.com.cn/mobile/voto/570751_comment.html'
p2615
aS'http://product.pconline.com.cn/mobile/yibainian/548752_comment.html'
p2616
aS'http://product.pconline.com.cn/mobile/zte/577735_comment.html'
p2617
aS'http://product.pconline.com.cn/mobile/lenovo/592892_comment.html'
p2618
aS'http://product.pconline.com.cn/mobile/nokia/564041_comment.html'
p2619
aS'http://product.pconline.com.cn/mobile/runbo/532635_comment.html'
p2620
aS'http://product.pconline.com.cn/mobile/philips/442034_comment.html'
p2621
aS'http://product.pconline.com.cn/mobile/sony/540917_comment.html'
p2622
aS'http://product.pconline.com.cn/mobile/nokia/579435_comment.html'
p2623
aS'http://product.pconline.com.cn/mobile/nubia/557372_comment.html'
p2624
aS'http://product.pconline.com.cn/mobile/alcatel/97673_comment.html'
p2625
aS'http://product.pconline.com.cn/mobile/pomp/569193_comment.html'
p2626
aS'http://product.pconline.com.cn/mobile/huadoo/593269_comment.html'
p2627
aS'http://product.pconline.com.cn/mobile/zte/568706_comment.html'
p2628
aS'http://product.pconline.com.cn/mobile/letv/600903_comment.html'
p2629
aS'http://product.pconline.com.cn/mobile/hisense/578248_comment.html'
p2630
aS'http://product.pconline.com.cn/mobile/meizu/579364_comment.html'
p2631
aS'http://product.pconline.com.cn/mobile/runbo/544278_comment.html'
p2632
aS'http://product.pconline.com.cn/mobile/philips/564293_comment.html'
p2633
aS'http://product.pconline.com.cn/mobile/pantech/543913_comment.html'
p2634
aS'http://product.pconline.com.cn/mobile/samsung/577227_comment.html'
p2635
aS'http://product.pconline.com.cn/mobile/coolpad/523186_comment.html'
p2636
aS'http://product.pconline.com.cn/mobile/pomp/564065_comment.html'
p2637
aS'http://product.pconline.com.cn/mobile/samsung/538180_comment.html'
p2638
aS'http://product.pconline.com.cn/mobile/lenovo/577096_comment.html'
p2639
aS'http://product.pconline.com.cn/mobile/bubugao/562676_comment.html'
p2640
aS'http://product.pconline.com.cn/mobile/honor/581113_comment.html'
p2641
aS'http://product.pconline.com.cn/mobile/coolpad/555498_comment.html'
p2642
aS'http://product.pconline.com.cn/mobile/zte/551029_comment.html'
p2643
aS'http://product.pconline.com.cn/mobile/k_touch/550705_comment.html'
p2644
aS'http://product.pconline.com.cn/mobile/voto/409096_comment.html'
p2645
aS'http://product.pconline.com.cn/mobile/micro/579377_comment.html'
p2646
aS'http://product.pconline.com.cn/mobile/boway/552031_comment.html'
p2647
aS'http://product.pconline.com.cn/mobile/motorola/547861_comment.html'
p2648
aS'http://product.pconline.com.cn/mobile/lenovo/580289_comment.html'
p2649
aS'http://product.pconline.com.cn/mobile/htc/581189_comment.html'
p2650
aS'http://product.pconline.com.cn/mobile/lenovo/581420_comment.html'
p2651
aS'http://product.pconline.com.cn/mobile/nokia/554315_comment.html'
p2652
aS'http://product.pconline.com.cn/mobile/coolpad/579850_comment.html'
p2653
aS'http://product.pconline.com.cn/mobile/phicomm/567881_comment.html'
p2654
aS'http://product.pconline.com.cn/mobile/coolpad/523407_comment.html'
p2655
aS'http://product.pconline.com.cn/mobile/philips/569974_comment.html'
p2656
aS'http://product.pconline.com.cn/mobile/philips/528143_comment.html'
p2657
aS'http://product.pconline.com.cn/mobile/oppo/515075_comment.html'
p2658
aS'http://product.pconline.com.cn/mobile/htc/571539_comment.html'
p2659
aS'http://product.pconline.com.cn/mobile/dec/276475_comment.html'
p2660
aS'http://product.pconline.com.cn/mobile/bubugao/585914_comment.html'
p2661
aS'http://product.pconline.com.cn/mobile/samsung/543300_comment.html'
p2662
aS'http://product.pconline.com.cn/mobile/coolpad/557843_comment.html'
p2663
aS'http://product.pconline.com.cn/mobile/zuk/594867_comment.html'
p2664
aS'http://product.pconline.com.cn/mobile/philips/447561_comment.html'
p2665
aS'http://product.pconline.com.cn/mobile/zte/538733_comment.html'
p2666
aS'http://product.pconline.com.cn/mobile/bubugao/590181_comment.html'
p2667
aS'http://product.pconline.com.cn/mobile/tcl/535484_comment.html'
p2668
aS'http://product.pconline.com.cn/mobile/nubia/595590_comment.html'
p2669
aS'http://product.pconline.com.cn/mobile/huawei/588389_comment.html'
p2670
aS'http://product.pconline.com.cn/mobile/tcl/573993_comment.html'
p2671
aS'http://product.pconline.com.cn/mobile/huawei/577080_comment.html'
p2672
aS'http://product.pconline.com.cn/mobile/honor/602351_comment.html'
p2673
aS'http://product.pconline.com.cn/mobile/boway/567217_comment.html'
p2674
aS'http://product.pconline.com.cn/mobile/zte/577433_comment.html'
p2675
aS'http://product.pconline.com.cn/mobile/lenovo/577494_comment.html'
p2676
aS'http://product.pconline.com.cn/mobile/alcatel/241007_comment.html'
p2677
aS'http://product.pconline.com.cn/mobile/nokia/577298_comment.html'
p2678
aS'http://product.pconline.com.cn/mobile/samsung/548847_comment.html'
p2679
aS'http://product.pconline.com.cn/mobile/k_touch/548768_comment.html'
p2680
aS'http://product.pconline.com.cn/mobile/mk/529226_comment.html'
p2681
aS'http://product.pconline.com.cn/mobile/apple/575828_comment.html'
p2682
aS'http://product.pconline.com.cn/mobile/huawei/577584_comment.html'
p2683
aS'http://product.pconline.com.cn/mobile/zhuopu/542026_comment.html'
p2684
aS'http://product.pconline.com.cn/mobile/lenovo/575137_comment.html'
p2685
aS'http://product.pconline.com.cn/mobile/comio/572227_comment.html'
p2686
aS'http://product.pconline.com.cn/mobile/samsung/517260_comment.html'
p2687
aS'http://product.pconline.com.cn/mobile/gionee/594488_comment.html'
p2688
aS'http://product.pconline.com.cn/mobile/changhong/425458_comment.html'
p2689
aS'http://product.pconline.com.cn/mobile/nubia/557679_comment.html'
p2690
aS'http://product.pconline.com.cn/mobile/zte/577429_comment.html'
p2691
aS'http://product.pconline.com.cn/mobile/blackberry/580616_comment.html'
p2692
aS'http://product.pconline.com.cn/mobile/lenovo/577476_comment.html'
p2693
aS'http://product.pconline.com.cn/mobile/alcatel/494891_comment.html'
p2694
aS'http://product.pconline.com.cn/mobile/bubugao/607781_comment.html'
p2695
aS'http://product.pconline.com.cn/mobile/koobee/507948_comment.html'
p2696
aS'http://product.pconline.com.cn/mobile/hasee/569546_comment.html'
p2697
aS'http://product.pconline.com.cn/mobile/zte/595576_comment.html'
p2698
aS'http://product.pconline.com.cn/mobile/samsung/547482_comment.html'
p2699
aS'http://product.pconline.com.cn/mobile/doov/548206_comment.html'
p2700
aS'http://product.pconline.com.cn/mobile/fonee/539754_comment.html'
p2701
aS'http://product.pconline.com.cn/mobile/samsung/579832_comment.html'
p2702
aS'http://product.pconline.com.cn/mobile/lg/572119_comment.html'
p2703
atRp2704
.